ARM GAS  /tmp/ccq9PJ8X.s 			page 1


   1              		.cpu cortex-m4
   2              		.eabi_attribute 20, 1
   3              		.eabi_attribute 21, 1
   4              		.eabi_attribute 23, 3
   5              		.eabi_attribute 24, 1
   6              		.eabi_attribute 25, 1
   7              		.eabi_attribute 26, 1
   8              		.eabi_attribute 30, 2
   9              		.eabi_attribute 34, 1
  10              		.eabi_attribute 18, 4
  11              		.file	"st.c"
  12              		.text
  13              	.Ltext0:
  14              		.cfi_sections	.debug_frame
  15              		.section	.text.stInit,"ax",%progbits
  16              		.align	1
  17              		.p2align 4,,15
  18              		.global	stInit
  19              		.syntax unified
  20              		.thumb
  21              		.thumb_func
  22              		.fpu softvfp
  23              		.type	stInit, %function
  24              	stInit:
  25              	.LFB260:
  26              		.file 1 "../../../os/hal/src/st.c"
  27              		.loc 1 60 0
  28              		.cfi_startproc
  29              		@ args = 0, pretend = 0, frame = 0
  30              		@ frame_needed = 0, uses_anonymous_args = 0
  31              		@ link register save eliminated.
  32              		.loc 1 62 0
  33 0000 FFF7FEBF 		b	st_lld_init
  34              	.LVL0:
  35              		.cfi_endproc
  36              	.LFE260:
  37              		.size	stInit, .-stInit
  38              		.section	.text.stStartAlarm,"ax",%progbits
  39              		.align	1
  40              		.p2align 4,,15
  41              		.global	stStartAlarm
  42              		.syntax unified
  43              		.thumb
  44              		.thumb_func
  45              		.fpu softvfp
  46              		.type	stStartAlarm, %function
  47              	stStartAlarm:
  48              	.LFB261:
  49              		.loc 1 77 0
  50              		.cfi_startproc
  51              		@ args = 0, pretend = 0, frame = 0
  52              		@ frame_needed = 0, uses_anonymous_args = 0
  53              		@ link register save eliminated.
  54              	.LVL1:
  55              	.LBB10:
  56              	.LBB11:
  57              		.file 2 "../../../os/hal/ports/STM32/LLD/TIMv1/st_lld.h"
ARM GAS  /tmp/ccq9PJ8X.s 			page 2


  58              		.loc 2 143 0
  59 0000 4FF08043 		mov	r3, #1073741824
  60              	.LVL2:
  61              		.loc 2 144 0
  62 0004 0021     		movs	r1, #0
  63              		.loc 2 145 0
  64 0006 0222     		movs	r2, #2
  65              		.loc 2 143 0
  66 0008 5863     		str	r0, [r3, #52]
  67              		.loc 2 144 0
  68 000a 1961     		str	r1, [r3, #16]
  69              		.loc 2 145 0
  70 000c DA60     		str	r2, [r3, #12]
  71              	.LVL3:
  72              	.LBE11:
  73              	.LBE10:
  74              		.loc 1 82 0
  75 000e 7047     		bx	lr
  76              		.cfi_endproc
  77              	.LFE261:
  78              		.size	stStartAlarm, .-stStartAlarm
  79              		.section	.text.stStopAlarm,"ax",%progbits
  80              		.align	1
  81              		.p2align 4,,15
  82              		.global	stStopAlarm
  83              		.syntax unified
  84              		.thumb
  85              		.thumb_func
  86              		.fpu softvfp
  87              		.type	stStopAlarm, %function
  88              	stStopAlarm:
  89              	.LFB262:
  90              		.loc 1 91 0
  91              		.cfi_startproc
  92              		@ args = 0, pretend = 0, frame = 0
  93              		@ frame_needed = 0, uses_anonymous_args = 0
  94              		@ link register save eliminated.
  95              	.LBB12:
  96              	.LBB13:
  97              		.loc 2 155 0
  98 0000 4FF08043 		mov	r3, #1073741824
  99 0004 0022     		movs	r2, #0
 100 0006 DA60     		str	r2, [r3, #12]
 101              	.LBE13:
 102              	.LBE12:
 103              		.loc 1 94 0
 104 0008 7047     		bx	lr
 105              		.cfi_endproc
 106              	.LFE262:
 107              		.size	stStopAlarm, .-stStopAlarm
 108 000a 00BF     		.section	.text.stSetAlarm,"ax",%progbits
 109              		.align	1
 110              		.p2align 4,,15
 111              		.global	stSetAlarm
 112              		.syntax unified
 113              		.thumb
 114              		.thumb_func
ARM GAS  /tmp/ccq9PJ8X.s 			page 3


 115              		.fpu softvfp
 116              		.type	stSetAlarm, %function
 117              	stSetAlarm:
 118              	.LFB263:
 119              		.loc 1 105 0
 120              		.cfi_startproc
 121              		@ args = 0, pretend = 0, frame = 0
 122              		@ frame_needed = 0, uses_anonymous_args = 0
 123              		@ link register save eliminated.
 124              	.LVL4:
 125              	.LBB14:
 126              	.LBB15:
 127              		.loc 2 167 0
 128 0000 4FF08043 		mov	r3, #1073741824
 129              	.LVL5:
 130 0004 5863     		str	r0, [r3, #52]
 131              	.LVL6:
 132              	.LBE15:
 133              	.LBE14:
 134              		.loc 1 110 0
 135 0006 7047     		bx	lr
 136              		.cfi_endproc
 137              	.LFE263:
 138              		.size	stSetAlarm, .-stSetAlarm
 139              		.section	.text.stGetAlarm,"ax",%progbits
 140              		.align	1
 141              		.p2align 4,,15
 142              		.global	stGetAlarm
 143              		.syntax unified
 144              		.thumb
 145              		.thumb_func
 146              		.fpu softvfp
 147              		.type	stGetAlarm, %function
 148              	stGetAlarm:
 149              	.LFB264:
 150              		.loc 1 121 0
 151              		.cfi_startproc
 152              		@ args = 0, pretend = 0, frame = 0
 153              		@ frame_needed = 0, uses_anonymous_args = 0
 154              		@ link register save eliminated.
 155              	.LBB16:
 156              	.LBB17:
 157              		.loc 2 179 0
 158 0000 4FF08043 		mov	r3, #1073741824
 159 0004 586B     		ldr	r0, [r3, #52]
 160              	.LBE17:
 161              	.LBE16:
 162              		.loc 1 126 0
 163 0006 7047     		bx	lr
 164              		.cfi_endproc
 165              	.LFE264:
 166              		.size	stGetAlarm, .-stGetAlarm
 167              		.text
 168              	.Letext0:
 169              		.file 3 "/home/acse-lab/Documents/TeamK/Eclipse_e-puck2/Tools/gcc-arm-none-eabi-7-2017-q4-major/li
 170              		.file 4 "/home/acse-lab/Documents/TeamK/Eclipse_e-puck2/Tools/gcc-arm-none-eabi-7-2017-q4-major/ar
 171              		.file 5 "/home/acse-lab/Documents/TeamK/Eclipse_e-puck2/Tools/gcc-arm-none-eabi-7-2017-q4-major/ar
ARM GAS  /tmp/ccq9PJ8X.s 			page 4


 172              		.file 6 "../../../os/rt/ports/ARMCMx/compilers/GCC/chtypes.h"
 173              		.file 7 "../../../os/rt/include/chsystypes.h"
 174              		.file 8 "../../../os/rt/include/chschd.h"
 175              		.file 9 "../../../os/ext/CMSIS/include/core_cm4.h"
 176              		.file 10 "../../../os/ext/CMSIS/ST/system_stm32f4xx.h"
 177              		.file 11 "../../../os/ext/CMSIS/ST/stm32f407xx.h"
 178              		.file 12 "../../../os/rt/ports/ARMCMx/chcore.h"
 179              		.file 13 "../../../os/rt/ports/ARMCMx/chcore_v7m.h"
 180              		.file 14 "../../../os/hal/ports/STM32/LLD/TIMv1/stm32_tim.h"
 181              		.file 15 "../../../os/rt/include/chtm.h"
 182              		.file 16 "../../../os/rt/include/chsem.h"
 183              		.file 17 "../../../os/rt/include/chmtx.h"
 184              		.file 18 "../../../os/rt/include/chregistry.h"
 185              		.file 19 "../../../os/rt/include/chevents.h"
 186              		.file 20 "../../../os/rt/include/chqueues.h"
 187              		.file 21 "../../../os/hal/ports/STM32/STM32F4xx/stm32_dma.h"
 188              		.file 22 "../../../os/hal/ports/STM32/LLD/GPIOv2/pal_lld.h"
 189              		.file 23 "../../../os/hal/include/pwm.h"
 190              		.file 24 "../../../os/hal/ports/STM32/LLD/TIMv1/pwm_lld.h"
 191              		.file 25 "../../../os/hal/include/serial.h"
 192              		.file 26 "../../../os/hal/ports/STM32/LLD/USARTv1/serial_lld.h"
 193              		.file 27 "../../../os/hal/include/spi.h"
 194              		.file 28 "../../../os/hal/ports/STM32/LLD/SPIv1/spi_lld.h"