ARM GAS  /tmp/ccq9PJ8X.s 			page 1


   1              		.cpu cortex-m4
   2              		.eabi_attribute 20, 1
   3              		.eabi_attribute 21, 1
   4              		.eabi_attribute 23, 3
   5              		.eabi_attribute 24, 1
   6              		.eabi_attribute 25, 1
   7              		.eabi_attribute 26, 1
   8              		.eabi_attribute 30, 2
   9              		.eabi_attribute 34, 1
  10              		.eabi_attribute 18, 4
  11              		.file	"st.c"
  12              		.text
  13              	.Ltext0:
  14              		.cfi_sections	.debug_frame
  15              		.section	.text.stInit,"ax",%progbits
  16              		.align	1
  17              		.p2align 4,,15
  18              		.global	stInit
  19              		.syntax unified
  20              		.thumb
  21              		.thumb_func
  22              		.fpu softvfp
  23              		.type	stInit, %function
  24              	stInit:
  25              	.LFB260:
  26              		.file 1 "../../../os/hal/src/st.c"
  27              		.loc 1 60 0
  28              		.cfi_startproc
  29              		@ args = 0, pretend = 0, frame = 0
  30              		@ frame_needed = 0, uses_anonymous_args = 0
  31              		@ link register save eliminated.
  32              		.loc 1 62 0
  33 0000 FFF7FEBF 		b	st_lld_init
  34              	.LVL0:
  35              		.cfi_endproc
  36              	.LFE260:
  37              		.size	stInit, .-stInit
  38              		.section	.text.stStartAlarm,"ax",%progbits
  39              		.align	1
  40              		.p2align 4,,15
  41              		.global	stStartAlarm
  42              		.syntax unified
  43              		.thumb
  44              		.thumb_func
  45              		.fpu softvfp
  46              		.type	stStartAlarm, %function
  47              	stStartAlarm:
  48              	.LFB261:
  49              		.loc 1 77 0
  50              		.cfi_startproc
  51              		@ args = 0, pretend = 0, frame = 0
  52              		@ frame_needed = 0, uses_anonymous_args = 0
  53              		@ link register save eliminated.
  54              	.LVL1:
  55              	.LBB10:
  56              	.LBB11:
  57              		.file 2 "../../../os/hal/ports/STM32/LLD/TIMv1/st_lld.h"
ARM GAS  /tmp/ccq9PJ8X.s 			page 2


  58              		.loc 2 143 0
  59 0000 4FF08043 		mov	r3, #1073741824
  60              	.LVL2:
  61              		.loc 2 144 0
  62 0004 0021     		movs	r1, #0
  63              		.loc 2 145 0
  64 0006 0222     		movs	r2, #2
  65              		.loc 2 143 0
  66 0008 5863     		str	r0, [r3, #52]
  67              		.loc 2 144 0
  68 000a 1961     		str	r1, [r3, #16]
  69              		.loc 2 145 0
  70 000c DA60     		str	r2, [r3, #12]
  71              	.LVL3:
  72              	.LBE11:
  73              	.LBE10:
  74              		.loc 1 82 0
  75 000e 7047     		bx	lr
  76              		.cfi_endproc
  77              	.LFE261:
  78              		.size	stStartAlarm, .-stStartAlarm
  79              		.section	.text.stStopAlarm,"ax",%progbits
  80              		.align	1
  81              		.p2align 4,,15
  82              		.global	stStopAlarm
  83              		.syntax unified
  84              		.thumb
  85              		.thumb_func
  86              		.fpu softvfp
  87              		.type	stStopAlarm, %function
  88              	stStopAlarm:
  89              	.LFB262:
  90              		.loc 1 91 0
  91              		.cfi_startproc
  92              		@ args = 0, pretend = 0, frame = 0
  93              		@ frame_needed = 0, uses_anonymous_args = 0
  94              		@ link register save eliminated.
  95              	.LBB12:
  96              	.LBB13:
  97              		.loc 2 155 0
  98 0000 4FF08043 		mov	r3, #1073741824
  99 0004 0022     		movs	r2, #0
 100 0006 DA60     		str	r2, [r3, #12]
 101              	.LBE13:
 102              	.LBE12:
 103              		.loc 1 94 0
 104 0008 7047     		bx	lr
 105              		.cfi_endproc
 106              	.LFE262:
 107              		.size	stStopAlarm, .-stStopAlarm
 108 000a 00BF     		.section	.text.stSetAlarm,"ax",%progbits
 109              		.align	1
 110              		.p2align 4,,15
 111              		.global	stSetAlarm
 112              		.syntax unified
 113              		.thumb
 114              		.thumb_func
ARM GAS  /tmp/ccq9PJ8X.s 			page 3


 115              		.fpu softvfp
 116              		.type	stSetAlarm, %function
 117              	stSetAlarm:
 118              	.LFB263:
 119              		.loc 1 105 0
 120              		.cfi_startproc
 121              		@ args = 0, pretend = 0, frame = 0
 122              		@ frame_needed = 0, uses_anonymous_args = 0
 123              		@ link register save eliminated.
 124              	.LVL4:
 125              	.LBB14:
 126              	.LBB15:
 127              		.loc 2 167 0
 128 0000 4FF08043 		mov	r3, #1073741824
 129              	.LVL5:
 130 0004 5863     		str	r0, [r3, #52]
 131              	.LVL6:
 132              	.LBE15:
 133              	.LBE14:
 134              		.loc 1 110 0
 135 0006 7047     		bx	lr
 136              		.cfi_endproc
 137              	.LFE263:
 138              		.size	stSetAlarm, .-stSetAlarm
 139              		.section	.text.stGetAlarm,"ax",%progbits
 140              		.align	1
 141              		.p2align 4,,15
 142              		.global	stGetAlarm
 143              		.syntax unified
 144              		.thumb
 145              		.thumb_func
 146              		.fpu softvfp
 147              		.type	stGetAlarm, %function
 148              	stGetAlarm:
 149              	.LFB264:
 150              		.loc 1 121 0
 151              		.cfi_startproc
 152              		@ args = 0, pretend = 0, frame = 0
 153              		@ frame_needed = 0, uses_anonymous_args = 0
 154              		@ link register save eliminated.
 155              	.LBB16:
 156              	.LBB17:
 157              		.loc 2 179 0
 158 0000 4FF08043 		mov	r3, #1073741824
 159 0004 586B     		ldr	r0, [r3, #52]
 160              	.LBE17:
 161              	.LBE16:
 162              		.loc 1 126 0
 163 0006 7047     		bx	lr
 164              		.cfi_endproc
 165              	.LFE264:
 166              		.size	stGetAlarm, .-stGetAlarm
 167              		.text
 168              	.Letext0:
 169              		.file 3 "/home/acse-lab/Documents/TeamK/Eclipse_e-puck2/Tools/gcc-arm-none-eabi-7-2017-q4-major/li
 170              		.file 4 "/home/acse-lab/Documents/TeamK/Eclipse_e-puck2/Tools/gcc-arm-none-eabi-7-2017-q4-major/ar
 171              		.file 5 "/home/acse-lab/Documents/TeamK/Eclipse_e-puck2/Tools/gcc-arm-none-eabi-7-2017-q4-major/ar
ARM GAS  /tmp/ccq9PJ8X.s 			page 4


 172              		.file 6 "../../../os/rt/ports/ARMCMx/compilers/GCC/chtypes.h"
 173              		.file 7 "../../../os/rt/include/chsystypes.h"
 174              		.file 8 "../../../os/rt/include/chschd.h"
 175              		.file 9 "../../../os/ext/CMSIS/include/core_cm4.h"
 176              		.file 10 "../../../os/ext/CMSIS/ST/system_stm32f4xx.h"
 177              		.file 11 "../../../os/ext/CMSIS/ST/stm32f407xx.h"
 178              		.file 12 "../../../os/rt/ports/ARMCMx/chcore.h"
 179              		.file 13 "../../../os/rt/ports/ARMCMx/chcore_v7m.h"
 180              		.file 14 "../../../os/hal/ports/STM32/LLD/TIMv1/stm32_tim.h"
 181              		.file 15 "../../../os/rt/include/chtm.h"
 182              		.file 16 "../../../os/rt/include/chsem.h"
 183              		.file 17 "../../../os/rt/include/chmtx.h"
 184              		.file 18 "../../../os/rt/include/chregistry.h"
 185              		.file 19 "../../../os/rt/include/chevents.h"
 186              		.file 20 "../../../os/rt/include/chqueues.h"
 187              		.file 21 "../../../os/hal/ports/STM32/STM32F4xx/stm32_dma.h"
 188              		.file 22 "../../../os/hal/ports/STM32/LLD/GPIOv2/pal_lld.h"
 189              		.file 23 "../../../os/hal/include/pwm.h"
 190              		.file 24 "../../../os/hal/ports/STM32/LLD/TIMv1/pwm_lld.h"
 191              		.file 25 "../../../os/hal/include/serial.h"
 192              		.file 26 "../../../os/hal/ports/STM32/LLD/USARTv1/serial_lld.h"
 193              		.file 27 "../../../os/hal/include/spi.h"
 194              		.file 28 "../../../os/hal/ports/STM32/LLD/SPIv1/spi_lld.h"
 195              		.section	.debug_info,"",%progbits
 196              	.Ldebug_info0:
 197 0000 76140000 		.4byte	0x1476
 198 0004 0400     		.2byte	0x4
 199 0006 00000000 		.4byte	.Ldebug_abbrev0
 200 000a 04       		.byte	0x4
 201 000b 01       		.uleb128 0x1
 202 000c 98050000 		.4byte	.LASF277
 203 0010 0C       		.byte	0xc
 204 0011 18090000 		.4byte	.LASF278
 205 0015 B5020000 		.4byte	.LASF279
 206 0019 00000000 		.4byte	.Ldebug_ranges0+0
 207 001d 00000000 		.4byte	0
 208 0021 00000000 		.4byte	.Ldebug_line0
 209 0025 02       		.uleb128 0x2
 210 0026 04       		.byte	0x4
 211 0027 05       		.byte	0x5
 212 0028 696E7400 		.ascii	"int\000"
 213 002c 03       		.uleb128 0x3
 214 002d 18000000 		.4byte	.LASF4
 215 0031 03       		.byte	0x3
 216 0032 D8       		.byte	0xd8
 217 0033 37000000 		.4byte	0x37
 218 0037 04       		.uleb128 0x4
 219 0038 04       		.byte	0x4
 220 0039 07       		.byte	0x7
 221 003a 70070000 		.4byte	.LASF0
 222 003e 04       		.uleb128 0x4
 223 003f 08       		.byte	0x8
 224 0040 05       		.byte	0x5
 225 0041 A4060000 		.4byte	.LASF1
 226 0045 04       		.uleb128 0x4
 227 0046 08       		.byte	0x8
 228 0047 04       		.byte	0x4
ARM GAS  /tmp/ccq9PJ8X.s 			page 5


 229 0048 50080000 		.4byte	.LASF2
 230 004c 04       		.uleb128 0x4
 231 004d 01       		.byte	0x1
 232 004e 06       		.byte	0x6
 233 004f 77020000 		.4byte	.LASF3
 234 0053 03       		.uleb128 0x3
 235 0054 75010000 		.4byte	.LASF5
 236 0058 04       		.byte	0x4
 237 0059 2B       		.byte	0x2b
 238 005a 5E000000 		.4byte	0x5e
 239 005e 04       		.uleb128 0x4
 240 005f 01       		.byte	0x1
 241 0060 08       		.byte	0x8
 242 0061 1B030000 		.4byte	.LASF6
 243 0065 04       		.uleb128 0x4
 244 0066 02       		.byte	0x2
 245 0067 05       		.byte	0x5
 246 0068 300A0000 		.4byte	.LASF7
 247 006c 03       		.uleb128 0x3
 248 006d C4030000 		.4byte	.LASF8
 249 0071 04       		.byte	0x4
 250 0072 39       		.byte	0x39
 251 0073 77000000 		.4byte	0x77
 252 0077 04       		.uleb128 0x4
 253 0078 02       		.byte	0x2
 254 0079 07       		.byte	0x7
 255 007a 560B0000 		.4byte	.LASF9
 256 007e 03       		.uleb128 0x3
 257 007f AD0B0000 		.4byte	.LASF10
 258 0083 04       		.byte	0x4
 259 0084 4D       		.byte	0x4d
 260 0085 89000000 		.4byte	0x89
 261 0089 04       		.uleb128 0x4
 262 008a 04       		.byte	0x4
 263 008b 05       		.byte	0x5
 264 008c D3010000 		.4byte	.LASF11
 265 0090 03       		.uleb128 0x3
 266 0091 8F060000 		.4byte	.LASF12
 267 0095 04       		.byte	0x4
 268 0096 4F       		.byte	0x4f
 269 0097 9B000000 		.4byte	0x9b
 270 009b 04       		.uleb128 0x4
 271 009c 04       		.byte	0x4
 272 009d 07       		.byte	0x7
 273 009e B9040000 		.4byte	.LASF13
 274 00a2 03       		.uleb128 0x3
 275 00a3 AE040000 		.4byte	.LASF14
 276 00a7 04       		.byte	0x4
 277 00a8 69       		.byte	0x69
 278 00a9 AD000000 		.4byte	0xad
 279 00ad 04       		.uleb128 0x4
 280 00ae 08       		.byte	0x8
 281 00af 07       		.byte	0x7
 282 00b0 BC080000 		.4byte	.LASF15
 283 00b4 03       		.uleb128 0x3
 284 00b5 8A020000 		.4byte	.LASF16
 285 00b9 05       		.byte	0x5
ARM GAS  /tmp/ccq9PJ8X.s 			page 6


 286 00ba 18       		.byte	0x18
 287 00bb 53000000 		.4byte	0x53
 288 00bf 05       		.uleb128 0x5
 289 00c0 B4000000 		.4byte	0xb4
 290 00c4 03       		.uleb128 0x3
 291 00c5 EB080000 		.4byte	.LASF17
 292 00c9 05       		.byte	0x5
 293 00ca 24       		.byte	0x24
 294 00cb 6C000000 		.4byte	0x6c
 295 00cf 03       		.uleb128 0x3
 296 00d0 72000000 		.4byte	.LASF18
 297 00d4 05       		.byte	0x5
 298 00d5 2C       		.byte	0x2c
 299 00d6 7E000000 		.4byte	0x7e
 300 00da 06       		.uleb128 0x6
 301 00db CF000000 		.4byte	0xcf
 302 00df 03       		.uleb128 0x3
 303 00e0 030B0000 		.4byte	.LASF19
 304 00e4 05       		.byte	0x5
 305 00e5 30       		.byte	0x30
 306 00e6 90000000 		.4byte	0x90
 307 00ea 06       		.uleb128 0x6
 308 00eb DF000000 		.4byte	0xdf
 309 00ef 03       		.uleb128 0x3
 310 00f0 470A0000 		.4byte	.LASF20
 311 00f4 05       		.byte	0x5
 312 00f5 3C       		.byte	0x3c
 313 00f6 A2000000 		.4byte	0xa2
 314 00fa 03       		.uleb128 0x3
 315 00fb 92070000 		.4byte	.LASF21
 316 00ff 06       		.byte	0x6
 317 0100 45       		.byte	0x45
 318 0101 DF000000 		.4byte	0xdf
 319 0105 03       		.uleb128 0x3
 320 0106 BB090000 		.4byte	.LASF22
 321 010a 06       		.byte	0x6
 322 010b 48       		.byte	0x48
 323 010c B4000000 		.4byte	0xb4
 324 0110 03       		.uleb128 0x3
 325 0111 15020000 		.4byte	.LASF23
 326 0115 06       		.byte	0x6
 327 0116 49       		.byte	0x49
 328 0117 B4000000 		.4byte	0xb4
 329 011b 03       		.uleb128 0x3
 330 011c BC0A0000 		.4byte	.LASF24
 331 0120 06       		.byte	0x6
 332 0121 4A       		.byte	0x4a
 333 0122 B4000000 		.4byte	0xb4
 334 0126 03       		.uleb128 0x3
 335 0127 50000000 		.4byte	.LASF25
 336 012b 06       		.byte	0x6
 337 012c 4C       		.byte	0x4c
 338 012d DF000000 		.4byte	0xdf
 339 0131 03       		.uleb128 0x3
 340 0132 F4080000 		.4byte	.LASF26
 341 0136 06       		.byte	0x6
 342 0137 4D       		.byte	0x4d
ARM GAS  /tmp/ccq9PJ8X.s 			page 7


 343 0138 CF000000 		.4byte	0xcf
 344 013c 03       		.uleb128 0x3
 345 013d 92020000 		.4byte	.LASF27
 346 0141 06       		.byte	0x6
 347 0142 4F       		.byte	0x4f
 348 0143 DF000000 		.4byte	0xdf
 349 0147 03       		.uleb128 0x3
 350 0148 0B090000 		.4byte	.LASF28
 351 014c 06       		.byte	0x6
 352 014d 50       		.byte	0x50
 353 014e DF000000 		.4byte	0xdf
 354 0152 03       		.uleb128 0x3
 355 0153 34040000 		.4byte	.LASF29
 356 0157 06       		.byte	0x6
 357 0158 51       		.byte	0x51
 358 0159 CF000000 		.4byte	0xcf
 359 015d 03       		.uleb128 0x3
 360 015e 32000000 		.4byte	.LASF30
 361 0162 07       		.byte	0x7
 362 0163 33       		.byte	0x33
 363 0164 DF000000 		.4byte	0xdf
 364 0168 03       		.uleb128 0x3
 365 0169 47080000 		.4byte	.LASF31
 366 016d 07       		.byte	0x7
 367 016e 3F       		.byte	0x3f
 368 016f 73010000 		.4byte	0x173
 369 0173 07       		.uleb128 0x7
 370 0174 FC040000 		.4byte	.LASF51
 371 0178 44       		.byte	0x44
 372 0179 08       		.byte	0x8
 373 017a C2       		.byte	0xc2
 374 017b 60020000 		.4byte	0x260
 375 017f 08       		.uleb128 0x8
 376 0180 E7010000 		.4byte	.LASF32
 377 0184 08       		.byte	0x8
 378 0185 C3       		.byte	0xc3
 379 0186 6B020000 		.4byte	0x26b
 380 018a 00       		.byte	0
 381 018b 08       		.uleb128 0x8
 382 018c 03020000 		.4byte	.LASF33
 383 0190 08       		.byte	0x8
 384 0191 C5       		.byte	0xc5
 385 0192 6B020000 		.4byte	0x26b
 386 0196 04       		.byte	0x4
 387 0197 08       		.uleb128 0x8
 388 0198 B3030000 		.4byte	.LASF34
 389 019c 08       		.byte	0x8
 390 019d C7       		.byte	0xc7
 391 019e 26010000 		.4byte	0x126
 392 01a2 08       		.byte	0x8
 393 01a3 08       		.uleb128 0x8
 394 01a4 4A000000 		.4byte	.LASF35
 395 01a8 08       		.byte	0x8
 396 01a9 C8       		.byte	0xc8
 397 01aa 30060000 		.4byte	0x630
 398 01ae 0C       		.byte	0xc
 399 01af 08       		.uleb128 0x8
ARM GAS  /tmp/ccq9PJ8X.s 			page 8


 400 01b0 C2010000 		.4byte	.LASF36
 401 01b4 08       		.byte	0x8
 402 01b5 CA       		.byte	0xca
 403 01b6 6B020000 		.4byte	0x26b
 404 01ba 10       		.byte	0x10
 405 01bb 08       		.uleb128 0x8
 406 01bc E3080000 		.4byte	.LASF37
 407 01c0 08       		.byte	0x8
 408 01c1 CB       		.byte	0xcb
 409 01c2 6B020000 		.4byte	0x26b
 410 01c6 14       		.byte	0x14
 411 01c7 08       		.uleb128 0x8
 412 01c8 CF0B0000 		.4byte	.LASF38
 413 01cc 08       		.byte	0x8
 414 01cd D2       		.byte	0xd2
 415 01ce C7080000 		.4byte	0x8c7
 416 01d2 18       		.byte	0x18
 417 01d3 08       		.uleb128 0x8
 418 01d4 F90B0000 		.4byte	.LASF39
 419 01d8 08       		.byte	0x8
 420 01d9 DD       		.byte	0xdd
 421 01da 10010000 		.4byte	0x110
 422 01de 1C       		.byte	0x1c
 423 01df 08       		.uleb128 0x8
 424 01e0 54070000 		.4byte	.LASF40
 425 01e4 08       		.byte	0x8
 426 01e5 E1       		.byte	0xe1
 427 01e6 05010000 		.4byte	0x105
 428 01ea 1D       		.byte	0x1d
 429 01eb 08       		.uleb128 0x8
 430 01ec AB070000 		.4byte	.LASF41
 431 01f0 08       		.byte	0x8
 432 01f1 E6       		.byte	0xe6
 433 01f2 1B010000 		.4byte	0x11b
 434 01f6 1E       		.byte	0x1e
 435 01f7 09       		.uleb128 0x9
 436 01f8 705F7500 		.ascii	"p_u\000"
 437 01fc 08       		.byte	0x8
 438 01fd 3101     		.2byte	0x131
 439 01ff 02080000 		.4byte	0x802
 440 0203 20       		.byte	0x20
 441 0204 0A       		.uleb128 0xa
 442 0205 38070000 		.4byte	.LASF42
 443 0209 08       		.byte	0x8
 444 020a 3601     		.2byte	0x136
 445 020c 71020000 		.4byte	0x271
 446 0210 24       		.byte	0x24
 447 0211 0A       		.uleb128 0xa
 448 0212 61000000 		.4byte	.LASF43
 449 0216 08       		.byte	0x8
 450 0217 3C01     		.2byte	0x13c
 451 0219 95020000 		.4byte	0x295
 452 021d 28       		.byte	0x28
 453 021e 0A       		.uleb128 0xa
 454 021f E70B0000 		.4byte	.LASF44
 455 0223 08       		.byte	0x8
 456 0224 4001     		.2byte	0x140
ARM GAS  /tmp/ccq9PJ8X.s 			page 9


 457 0226 31010000 		.4byte	0x131
 458 022a 30       		.byte	0x30
 459 022b 0A       		.uleb128 0xa
 460 022c 48040000 		.4byte	.LASF45
 461 0230 08       		.byte	0x8
 462 0231 4601     		.2byte	0x146
 463 0233 3C010000 		.4byte	0x13c
 464 0237 34       		.byte	0x34
 465 0238 0A       		.uleb128 0xa
 466 0239 2E020000 		.4byte	.LASF46
 467 023d 08       		.byte	0x8
 468 023e 4D01     		.2byte	0x14d
 469 0240 C1080000 		.4byte	0x8c1
 470 0244 38       		.byte	0x38
 471 0245 0A       		.uleb128 0xa
 472 0246 6F080000 		.4byte	.LASF47
 473 024a 08       		.byte	0x8
 474 024b 5101     		.2byte	0x151
 475 024d 26010000 		.4byte	0x126
 476 0251 3C       		.byte	0x3c
 477 0252 0A       		.uleb128 0xa
 478 0253 9A070000 		.4byte	.LASF48
 479 0257 08       		.byte	0x8
 480 0258 5801     		.2byte	0x158
 481 025a 48030000 		.4byte	0x348
 482 025e 40       		.byte	0x40
 483 025f 00       		.byte	0
 484 0260 03       		.uleb128 0x3
 485 0261 5C080000 		.4byte	.LASF49
 486 0265 07       		.byte	0x7
 487 0266 44       		.byte	0x44
 488 0267 6B020000 		.4byte	0x26b
 489 026b 0B       		.uleb128 0xb
 490 026c 04       		.byte	0x4
 491 026d 68010000 		.4byte	0x168
 492 0271 03       		.uleb128 0x3
 493 0272 D40A0000 		.4byte	.LASF50
 494 0276 07       		.byte	0x7
 495 0277 49       		.byte	0x49
 496 0278 7C020000 		.4byte	0x27c
 497 027c 07       		.uleb128 0x7
 498 027d 7A050000 		.4byte	.LASF52
 499 0281 04       		.byte	0x4
 500 0282 08       		.byte	0x8
 501 0283 B0       		.byte	0xb0
 502 0284 95020000 		.4byte	0x295
 503 0288 08       		.uleb128 0x8
 504 0289 E7010000 		.4byte	.LASF32
 505 028d 08       		.byte	0x8
 506 028e B1       		.byte	0xb1
 507 028f 6B020000 		.4byte	0x26b
 508 0293 00       		.byte	0
 509 0294 00       		.byte	0
 510 0295 03       		.uleb128 0x3
 511 0296 1E020000 		.4byte	.LASF53
 512 029a 07       		.byte	0x7
 513 029b 50       		.byte	0x50
ARM GAS  /tmp/ccq9PJ8X.s 			page 10


 514 029c A0020000 		.4byte	0x2a0
 515 02a0 07       		.uleb128 0x7
 516 02a1 FA080000 		.4byte	.LASF54
 517 02a5 08       		.byte	0x8
 518 02a6 08       		.byte	0x8
 519 02a7 B7       		.byte	0xb7
 520 02a8 C5020000 		.4byte	0x2c5
 521 02ac 08       		.uleb128 0x8
 522 02ad E7010000 		.4byte	.LASF32
 523 02b1 08       		.byte	0x8
 524 02b2 B8       		.byte	0xb8
 525 02b3 6B020000 		.4byte	0x26b
 526 02b7 00       		.byte	0
 527 02b8 08       		.uleb128 0x8
 528 02b9 03020000 		.4byte	.LASF33
 529 02bd 08       		.byte	0x8
 530 02be B9       		.byte	0xb9
 531 02bf 6B020000 		.4byte	0x26b
 532 02c3 04       		.byte	0x4
 533 02c4 00       		.byte	0
 534 02c5 03       		.uleb128 0x3
 535 02c6 47050000 		.4byte	.LASF55
 536 02ca 07       		.byte	0x7
 537 02cb 57       		.byte	0x57
 538 02cc D0020000 		.4byte	0x2d0
 539 02d0 0C       		.uleb128 0xc
 540 02d1 5A040000 		.4byte	.LASF56
 541 02d5 1C       		.byte	0x1c
 542 02d6 08       		.byte	0x8
 543 02d7 9001     		.2byte	0x190
 544 02d9 2C030000 		.4byte	0x32c
 545 02dd 0A       		.uleb128 0xa
 546 02de 75090000 		.4byte	.LASF57
 547 02e2 08       		.byte	0x8
 548 02e3 9101     		.2byte	0x191
 549 02e5 95020000 		.4byte	0x295
 550 02e9 00       		.byte	0
 551 02ea 0A       		.uleb128 0xa
 552 02eb 650A0000 		.4byte	.LASF58
 553 02ef 08       		.byte	0x8
 554 02f0 9201     		.2byte	0x192
 555 02f2 26010000 		.4byte	0x126
 556 02f6 08       		.byte	0x8
 557 02f7 0A       		.uleb128 0xa
 558 02f8 6C000000 		.4byte	.LASF59
 559 02fc 08       		.byte	0x8
 560 02fd 9401     		.2byte	0x194
 561 02ff 30060000 		.4byte	0x630
 562 0303 0C       		.byte	0xc
 563 0304 0A       		.uleb128 0xa
 564 0305 5C030000 		.4byte	.LASF60
 565 0309 08       		.byte	0x8
 566 030a 9701     		.2byte	0x197
 567 030c 6B020000 		.4byte	0x26b
 568 0310 10       		.byte	0x10
 569 0311 0A       		.uleb128 0xa
 570 0312 F9090000 		.4byte	.LASF61
ARM GAS  /tmp/ccq9PJ8X.s 			page 11


 571 0316 08       		.byte	0x8
 572 0317 9801     		.2byte	0x198
 573 0319 6B020000 		.4byte	0x26b
 574 031d 14       		.byte	0x14
 575 031e 0A       		.uleb128 0xa
 576 031f 43090000 		.4byte	.LASF62
 577 0323 08       		.byte	0x8
 578 0324 9B01     		.2byte	0x19b
 579 0326 6B020000 		.4byte	0x26b
 580 032a 18       		.byte	0x18
 581 032b 00       		.byte	0
 582 032c 03       		.uleb128 0x3
 583 032d 8C000000 		.4byte	.LASF63
 584 0331 07       		.byte	0x7
 585 0332 5C       		.byte	0x5c
 586 0333 37030000 		.4byte	0x337
 587 0337 0B       		.uleb128 0xb
 588 0338 04       		.byte	0x4
 589 0339 3D030000 		.4byte	0x33d
 590 033d 0D       		.uleb128 0xd
 591 033e 48030000 		.4byte	0x348
 592 0342 0E       		.uleb128 0xe
 593 0343 48030000 		.4byte	0x348
 594 0347 00       		.byte	0
 595 0348 0F       		.uleb128 0xf
 596 0349 04       		.byte	0x4
 597 034a 03       		.uleb128 0x3
 598 034b 37050000 		.4byte	.LASF64
 599 034f 07       		.byte	0x7
 600 0350 61       		.byte	0x61
 601 0351 55030000 		.4byte	0x355
 602 0355 0C       		.uleb128 0xc
 603 0356 9B080000 		.4byte	.LASF65
 604 035a 14       		.byte	0x14
 605 035b 08       		.byte	0x8
 606 035c 6B01     		.2byte	0x16b
 607 035e A4030000 		.4byte	0x3a4
 608 0362 0A       		.uleb128 0xa
 609 0363 C5060000 		.4byte	.LASF66
 610 0367 08       		.byte	0x8
 611 0368 6C01     		.2byte	0x16c
 612 036a DE080000 		.4byte	0x8de
 613 036e 00       		.byte	0
 614 036f 0A       		.uleb128 0xa
 615 0370 CD060000 		.4byte	.LASF67
 616 0374 08       		.byte	0x8
 617 0375 6D01     		.2byte	0x16d
 618 0377 DE080000 		.4byte	0x8de
 619 037b 04       		.byte	0x4
 620 037c 0A       		.uleb128 0xa
 621 037d 92080000 		.4byte	.LASF68
 622 0381 08       		.byte	0x8
 623 0382 6E01     		.2byte	0x16e
 624 0384 5D010000 		.4byte	0x15d
 625 0388 08       		.byte	0x8
 626 0389 0A       		.uleb128 0xa
 627 038a 40040000 		.4byte	.LASF69
ARM GAS  /tmp/ccq9PJ8X.s 			page 12


 628 038e 08       		.byte	0x8
 629 038f 6F01     		.2byte	0x16f
 630 0391 2C030000 		.4byte	0x32c
 631 0395 0C       		.byte	0xc
 632 0396 0A       		.uleb128 0xa
 633 0397 56010000 		.4byte	.LASF70
 634 039b 08       		.byte	0x8
 635 039c 7101     		.2byte	0x171
 636 039e 48030000 		.4byte	0x348
 637 03a2 10       		.byte	0x10
 638 03a3 00       		.byte	0
 639 03a4 03       		.uleb128 0x3
 640 03a5 06050000 		.4byte	.LASF71
 641 03a9 07       		.byte	0x7
 642 03aa 66       		.byte	0x66
 643 03ab AF030000 		.4byte	0x3af
 644 03af 0C       		.uleb128 0xc
 645 03b0 95000000 		.4byte	.LASF72
 646 03b4 10       		.byte	0x10
 647 03b5 08       		.byte	0x8
 648 03b6 7B01     		.2byte	0x17b
 649 03b8 F1030000 		.4byte	0x3f1
 650 03bc 0A       		.uleb128 0xa
 651 03bd C5060000 		.4byte	.LASF66
 652 03c1 08       		.byte	0x8
 653 03c2 7C01     		.2byte	0x17c
 654 03c4 DE080000 		.4byte	0x8de
 655 03c8 00       		.byte	0
 656 03c9 0A       		.uleb128 0xa
 657 03ca CD060000 		.4byte	.LASF67
 658 03ce 08       		.byte	0x8
 659 03cf 7E01     		.2byte	0x17e
 660 03d1 DE080000 		.4byte	0x8de
 661 03d5 04       		.byte	0x4
 662 03d6 0A       		.uleb128 0xa
 663 03d7 92080000 		.4byte	.LASF68
 664 03db 08       		.byte	0x8
 665 03dc 8001     		.2byte	0x180
 666 03de 5D010000 		.4byte	0x15d
 667 03e2 08       		.byte	0x8
 668 03e3 0A       		.uleb128 0xa
 669 03e4 4A0B0000 		.4byte	.LASF73
 670 03e8 08       		.byte	0x8
 671 03e9 8801     		.2byte	0x188
 672 03eb 5D010000 		.4byte	0x15d
 673 03ef 0C       		.byte	0xc
 674 03f0 00       		.byte	0
 675 03f1 03       		.uleb128 0x3
 676 03f2 64030000 		.4byte	.LASF74
 677 03f6 07       		.byte	0x7
 678 03f7 6B       		.byte	0x6b
 679 03f8 FC030000 		.4byte	0x3fc
 680 03fc 0C       		.uleb128 0xc
 681 03fd 6C0A0000 		.4byte	.LASF75
 682 0401 04       		.byte	0x4
 683 0402 08       		.byte	0x8
 684 0403 A201     		.2byte	0x1a2
ARM GAS  /tmp/ccq9PJ8X.s 			page 13


 685 0405 17040000 		.4byte	0x417
 686 0409 0A       		.uleb128 0xa
 687 040a 52030000 		.4byte	.LASF76
 688 040e 08       		.byte	0x8
 689 040f AA01     		.2byte	0x1aa
 690 0411 CD080000 		.4byte	0x8cd
 691 0415 00       		.byte	0
 692 0416 00       		.byte	0
 693 0417 03       		.uleb128 0x3
 694 0418 690B0000 		.4byte	.LASF77
 695 041c 07       		.byte	0x7
 696 041d 70       		.byte	0x70
 697 041e 22040000 		.4byte	0x422
 698 0422 10       		.uleb128 0x10
 699 0423 E90A0000 		.4byte	.LASF78
 700 0427 5001     		.2byte	0x150
 701 0429 08       		.byte	0x8
 702 042a C201     		.2byte	0x1c2
 703 042c 7E040000 		.4byte	0x47e
 704 0430 0A       		.uleb128 0xa
 705 0431 B5090000 		.4byte	.LASF79
 706 0435 08       		.byte	0x8
 707 0436 C601     		.2byte	0x1c6
 708 0438 C5020000 		.4byte	0x2c5
 709 043c 00       		.byte	0
 710 043d 0A       		.uleb128 0xa
 711 043e A30A0000 		.4byte	.LASF80
 712 0442 08       		.byte	0x8
 713 0443 CA01     		.2byte	0x1ca
 714 0445 A4030000 		.4byte	0x3a4
 715 0449 1C       		.byte	0x1c
 716 044a 09       		.uleb128 0x9
 717 044b 64626700 		.ascii	"dbg\000"
 718 044f 08       		.byte	0x8
 719 0450 CE01     		.2byte	0x1ce
 720 0452 F1030000 		.4byte	0x3f1
 721 0456 2C       		.byte	0x2c
 722 0457 0A       		.uleb128 0xa
 723 0458 5E090000 		.4byte	.LASF81
 724 045c 08       		.byte	0x8
 725 045d D201     		.2byte	0x1d2
 726 045f 68010000 		.4byte	0x168
 727 0463 30       		.byte	0x30
 728 0464 09       		.uleb128 0x9
 729 0465 746D00   		.ascii	"tm\000"
 730 0468 08       		.byte	0x8
 731 0469 D701     		.2byte	0x1d7
 732 046b F7070000 		.4byte	0x7f7
 733 046f 74       		.byte	0x74
 734 0470 0A       		.uleb128 0xa
 735 0471 61070000 		.4byte	.LASF82
 736 0475 08       		.byte	0x8
 737 0476 E301     		.2byte	0x1e3
 738 0478 E4080000 		.4byte	0x8e4
 739 047c 78       		.byte	0x78
 740 047d 00       		.byte	0
 741 047e 11       		.uleb128 0x11
ARM GAS  /tmp/ccq9PJ8X.s 			page 14


 742 047f FF060000 		.4byte	.LASF83
 743 0483 09       		.byte	0x9
 744 0484 A706     		.2byte	0x6a7
 745 0486 DA000000 		.4byte	0xda
 746 048a 12       		.uleb128 0x12
 747 048b DF040000 		.4byte	.LASF84
 748 048f 0A       		.byte	0xa
 749 0490 4C       		.byte	0x4c
 750 0491 DF000000 		.4byte	0xdf
 751 0495 13       		.uleb128 0x13
 752 0496 18       		.byte	0x18
 753 0497 0B       		.byte	0xb
 754 0498 6B01     		.2byte	0x16b
 755 049a EC040000 		.4byte	0x4ec
 756 049e 09       		.uleb128 0x9
 757 049f 435200   		.ascii	"CR\000"
 758 04a2 0B       		.byte	0xb
 759 04a3 6D01     		.2byte	0x16d
 760 04a5 EA000000 		.4byte	0xea
 761 04a9 00       		.byte	0
 762 04aa 0A       		.uleb128 0xa
 763 04ab BF0B0000 		.4byte	.LASF85
 764 04af 0B       		.byte	0xb
 765 04b0 6E01     		.2byte	0x16e
 766 04b2 EA000000 		.4byte	0xea
 767 04b6 04       		.byte	0x4
 768 04b7 09       		.uleb128 0x9
 769 04b8 50415200 		.ascii	"PAR\000"
 770 04bc 0B       		.byte	0xb
 771 04bd 6F01     		.2byte	0x16f
 772 04bf EA000000 		.4byte	0xea
 773 04c3 08       		.byte	0x8
 774 04c4 0A       		.uleb128 0xa
 775 04c5 190A0000 		.4byte	.LASF86
 776 04c9 0B       		.byte	0xb
 777 04ca 7001     		.2byte	0x170
 778 04cc EA000000 		.4byte	0xea
 779 04d0 0C       		.byte	0xc
 780 04d1 0A       		.uleb128 0xa
 781 04d2 00000000 		.4byte	.LASF87
 782 04d6 0B       		.byte	0xb
 783 04d7 7101     		.2byte	0x171
 784 04d9 EA000000 		.4byte	0xea
 785 04dd 10       		.byte	0x10
 786 04de 09       		.uleb128 0x9
 787 04df 46435200 		.ascii	"FCR\000"
 788 04e3 0B       		.byte	0xb
 789 04e4 7201     		.2byte	0x172
 790 04e6 EA000000 		.4byte	0xea
 791 04ea 14       		.byte	0x14
 792 04eb 00       		.byte	0
 793 04ec 14       		.uleb128 0x14
 794 04ed 03080000 		.4byte	.LASF88
 795 04f1 0B       		.byte	0xb
 796 04f2 7301     		.2byte	0x173
 797 04f4 95040000 		.4byte	0x495
 798 04f8 15       		.uleb128 0x15
ARM GAS  /tmp/ccq9PJ8X.s 			page 15


 799 04f9 EA000000 		.4byte	0xea
 800 04fd 08050000 		.4byte	0x508
 801 0501 16       		.uleb128 0x16
 802 0502 37000000 		.4byte	0x37
 803 0506 01       		.byte	0x1
 804 0507 00       		.byte	0
 805 0508 06       		.uleb128 0x6
 806 0509 F8040000 		.4byte	0x4f8
 807 050d 15       		.uleb128 0x15
 808 050e EA000000 		.4byte	0xea
 809 0512 1D050000 		.4byte	0x51d
 810 0516 16       		.uleb128 0x16
 811 0517 37000000 		.4byte	0x37
 812 051b 03       		.byte	0x3
 813 051c 00       		.byte	0
 814 051d 06       		.uleb128 0x6
 815 051e 0D050000 		.4byte	0x50d
 816 0522 13       		.uleb128 0x13
 817 0523 24       		.byte	0x24
 818 0524 0B       		.byte	0xb
 819 0525 DB02     		.2byte	0x2db
 820 0527 9F050000 		.4byte	0x59f
 821 052b 09       		.uleb128 0x9
 822 052c 43523100 		.ascii	"CR1\000"
 823 0530 0B       		.byte	0xb
 824 0531 DD02     		.2byte	0x2dd
 825 0533 EA000000 		.4byte	0xea
 826 0537 00       		.byte	0
 827 0538 09       		.uleb128 0x9
 828 0539 43523200 		.ascii	"CR2\000"
 829 053d 0B       		.byte	0xb
 830 053e DE02     		.2byte	0x2de
 831 0540 EA000000 		.4byte	0xea
 832 0544 04       		.byte	0x4
 833 0545 09       		.uleb128 0x9
 834 0546 535200   		.ascii	"SR\000"
 835 0549 0B       		.byte	0xb
 836 054a DF02     		.2byte	0x2df
 837 054c EA000000 		.4byte	0xea
 838 0550 08       		.byte	0x8
 839 0551 09       		.uleb128 0x9
 840 0552 445200   		.ascii	"DR\000"
 841 0555 0B       		.byte	0xb
 842 0556 E002     		.2byte	0x2e0
 843 0558 EA000000 		.4byte	0xea
 844 055c 0C       		.byte	0xc
 845 055d 0A       		.uleb128 0xa
 846 055e C3090000 		.4byte	.LASF89
 847 0562 0B       		.byte	0xb
 848 0563 E102     		.2byte	0x2e1
 849 0565 EA000000 		.4byte	0xea
 850 0569 10       		.byte	0x10
 851 056a 0A       		.uleb128 0xa
 852 056b 0C070000 		.4byte	.LASF90
 853 056f 0B       		.byte	0xb
 854 0570 E202     		.2byte	0x2e2
 855 0572 EA000000 		.4byte	0xea
ARM GAS  /tmp/ccq9PJ8X.s 			page 16


 856 0576 14       		.byte	0x14
 857 0577 0A       		.uleb128 0xa
 858 0578 A2090000 		.4byte	.LASF91
 859 057c 0B       		.byte	0xb
 860 057d E302     		.2byte	0x2e3
 861 057f EA000000 		.4byte	0xea
 862 0583 18       		.byte	0x18
 863 0584 0A       		.uleb128 0xa
 864 0585 6D010000 		.4byte	.LASF92
 865 0589 0B       		.byte	0xb
 866 058a E402     		.2byte	0x2e4
 867 058c EA000000 		.4byte	0xea
 868 0590 1C       		.byte	0x1c
 869 0591 0A       		.uleb128 0xa
 870 0592 0C0B0000 		.4byte	.LASF93
 871 0596 0B       		.byte	0xb
 872 0597 E502     		.2byte	0x2e5
 873 0599 EA000000 		.4byte	0xea
 874 059d 20       		.byte	0x20
 875 059e 00       		.byte	0
 876 059f 14       		.uleb128 0x14
 877 05a0 A9090000 		.4byte	.LASF94
 878 05a4 0B       		.byte	0xb
 879 05a5 E602     		.2byte	0x2e6
 880 05a7 22050000 		.4byte	0x522
 881 05ab 13       		.uleb128 0x13
 882 05ac 1C       		.byte	0x1c
 883 05ad 0B       		.byte	0xb
 884 05ae 0903     		.2byte	0x309
 885 05b0 0E060000 		.4byte	0x60e
 886 05b4 09       		.uleb128 0x9
 887 05b5 535200   		.ascii	"SR\000"
 888 05b8 0B       		.byte	0xb
 889 05b9 0B03     		.2byte	0x30b
 890 05bb EA000000 		.4byte	0xea
 891 05bf 00       		.byte	0
 892 05c0 09       		.uleb128 0x9
 893 05c1 445200   		.ascii	"DR\000"
 894 05c4 0B       		.byte	0xb
 895 05c5 0C03     		.2byte	0x30c
 896 05c7 EA000000 		.4byte	0xea
 897 05cb 04       		.byte	0x4
 898 05cc 09       		.uleb128 0x9
 899 05cd 42525200 		.ascii	"BRR\000"
 900 05d1 0B       		.byte	0xb
 901 05d2 0D03     		.2byte	0x30d
 902 05d4 EA000000 		.4byte	0xea
 903 05d8 08       		.byte	0x8
 904 05d9 09       		.uleb128 0x9
 905 05da 43523100 		.ascii	"CR1\000"
 906 05de 0B       		.byte	0xb
 907 05df 0E03     		.2byte	0x30e
 908 05e1 EA000000 		.4byte	0xea
 909 05e5 0C       		.byte	0xc
 910 05e6 09       		.uleb128 0x9
 911 05e7 43523200 		.ascii	"CR2\000"
 912 05eb 0B       		.byte	0xb
ARM GAS  /tmp/ccq9PJ8X.s 			page 17


 913 05ec 0F03     		.2byte	0x30f
 914 05ee EA000000 		.4byte	0xea
 915 05f2 10       		.byte	0x10
 916 05f3 09       		.uleb128 0x9
 917 05f4 43523300 		.ascii	"CR3\000"
 918 05f8 0B       		.byte	0xb
 919 05f9 1003     		.2byte	0x310
 920 05fb EA000000 		.4byte	0xea
 921 05ff 14       		.byte	0x14
 922 0600 0A       		.uleb128 0xa
 923 0601 D5060000 		.4byte	.LASF95
 924 0605 0B       		.byte	0xb
 925 0606 1103     		.2byte	0x311
 926 0608 EA000000 		.4byte	0xea
 927 060c 18       		.byte	0x18
 928 060d 00       		.byte	0
 929 060e 14       		.uleb128 0x14
 930 060f F3030000 		.4byte	.LASF96
 931 0613 0B       		.byte	0xb
 932 0614 1203     		.2byte	0x312
 933 0616 AB050000 		.4byte	0x5ab
 934 061a 03       		.uleb128 0x3
 935 061b 3F020000 		.4byte	.LASF97
 936 061f 0C       		.byte	0xc
 937 0620 65       		.byte	0x65
 938 0621 48030000 		.4byte	0x348
 939 0625 03       		.uleb128 0x3
 940 0626 E8030000 		.4byte	.LASF98
 941 062a 0C       		.byte	0xc
 942 062b 6D       		.byte	0x6d
 943 062c EF000000 		.4byte	0xef
 944 0630 07       		.uleb128 0x7
 945 0631 9E020000 		.4byte	.LASF99
 946 0635 04       		.byte	0x4
 947 0636 0C       		.byte	0xc
 948 0637 89       		.byte	0x89
 949 0638 49060000 		.4byte	0x649
 950 063c 17       		.uleb128 0x17
 951 063d 72313300 		.ascii	"r13\000"
 952 0641 0C       		.byte	0xc
 953 0642 8A       		.byte	0x8a
 954 0643 C4060000 		.4byte	0x6c4
 955 0647 00       		.byte	0
 956 0648 00       		.byte	0
 957 0649 07       		.uleb128 0x7
 958 064a 7A080000 		.4byte	.LASF100
 959 064e 24       		.byte	0x24
 960 064f 0D       		.byte	0xd
 961 0650 F4       		.byte	0xf4
 962 0651 C4060000 		.4byte	0x6c4
 963 0655 09       		.uleb128 0x9
 964 0656 723400   		.ascii	"r4\000"
 965 0659 0D       		.byte	0xd
 966 065a 0701     		.2byte	0x107
 967 065c 1A060000 		.4byte	0x61a
 968 0660 00       		.byte	0
 969 0661 09       		.uleb128 0x9
ARM GAS  /tmp/ccq9PJ8X.s 			page 18


 970 0662 723500   		.ascii	"r5\000"
 971 0665 0D       		.byte	0xd
 972 0666 0801     		.2byte	0x108
 973 0668 1A060000 		.4byte	0x61a
 974 066c 04       		.byte	0x4
 975 066d 09       		.uleb128 0x9
 976 066e 723600   		.ascii	"r6\000"
 977 0671 0D       		.byte	0xd
 978 0672 0901     		.2byte	0x109
 979 0674 1A060000 		.4byte	0x61a
 980 0678 08       		.byte	0x8
 981 0679 09       		.uleb128 0x9
 982 067a 723700   		.ascii	"r7\000"
 983 067d 0D       		.byte	0xd
 984 067e 0A01     		.2byte	0x10a
 985 0680 1A060000 		.4byte	0x61a
 986 0684 0C       		.byte	0xc
 987 0685 09       		.uleb128 0x9
 988 0686 723800   		.ascii	"r8\000"
 989 0689 0D       		.byte	0xd
 990 068a 0B01     		.2byte	0x10b
 991 068c 1A060000 		.4byte	0x61a
 992 0690 10       		.byte	0x10
 993 0691 09       		.uleb128 0x9
 994 0692 723900   		.ascii	"r9\000"
 995 0695 0D       		.byte	0xd
 996 0696 0C01     		.2byte	0x10c
 997 0698 1A060000 		.4byte	0x61a
 998 069c 14       		.byte	0x14
 999 069d 09       		.uleb128 0x9
 1000 069e 72313000 		.ascii	"r10\000"
 1001 06a2 0D       		.byte	0xd
 1002 06a3 0D01     		.2byte	0x10d
 1003 06a5 1A060000 		.4byte	0x61a
 1004 06a9 18       		.byte	0x18
 1005 06aa 09       		.uleb128 0x9
 1006 06ab 72313100 		.ascii	"r11\000"
 1007 06af 0D       		.byte	0xd
 1008 06b0 0E01     		.2byte	0x10e
 1009 06b2 1A060000 		.4byte	0x61a
 1010 06b6 1C       		.byte	0x1c
 1011 06b7 09       		.uleb128 0x9
 1012 06b8 6C7200   		.ascii	"lr\000"
 1013 06bb 0D       		.byte	0xd
 1014 06bc 0F01     		.2byte	0x10f
 1015 06be 1A060000 		.4byte	0x61a
 1016 06c2 20       		.byte	0x20
 1017 06c3 00       		.byte	0
 1018 06c4 0B       		.uleb128 0xb
 1019 06c5 04       		.byte	0x4
 1020 06c6 49060000 		.4byte	0x649
 1021 06ca 13       		.uleb128 0x13
 1022 06cb 60       		.byte	0x60
 1023 06cc 0E       		.byte	0xe
 1024 06cd 9E01     		.2byte	0x19e
 1025 06cf D6070000 		.4byte	0x7d6
 1026 06d3 09       		.uleb128 0x9
ARM GAS  /tmp/ccq9PJ8X.s 			page 19


 1027 06d4 43523100 		.ascii	"CR1\000"
 1028 06d8 0E       		.byte	0xe
 1029 06d9 9F01     		.2byte	0x19f
 1030 06db EA000000 		.4byte	0xea
 1031 06df 00       		.byte	0
 1032 06e0 09       		.uleb128 0x9
 1033 06e1 43523200 		.ascii	"CR2\000"
 1034 06e5 0E       		.byte	0xe
 1035 06e6 A001     		.2byte	0x1a0
 1036 06e8 EA000000 		.4byte	0xea
 1037 06ec 04       		.byte	0x4
 1038 06ed 0A       		.uleb128 0xa
 1039 06ee 69090000 		.4byte	.LASF101
 1040 06f2 0E       		.byte	0xe
 1041 06f3 A101     		.2byte	0x1a1
 1042 06f5 EA000000 		.4byte	0xea
 1043 06f9 08       		.byte	0x8
 1044 06fa 0A       		.uleb128 0xa
 1045 06fb D3040000 		.4byte	.LASF102
 1046 06ff 0E       		.byte	0xe
 1047 0700 A201     		.2byte	0x1a2
 1048 0702 EA000000 		.4byte	0xea
 1049 0706 0C       		.byte	0xc
 1050 0707 09       		.uleb128 0x9
 1051 0708 535200   		.ascii	"SR\000"
 1052 070b 0E       		.byte	0xe
 1053 070c A301     		.2byte	0x1a3
 1054 070e EA000000 		.4byte	0xea
 1055 0712 10       		.byte	0x10
 1056 0713 09       		.uleb128 0x9
 1057 0714 45475200 		.ascii	"EGR\000"
 1058 0718 0E       		.byte	0xe
 1059 0719 A401     		.2byte	0x1a4
 1060 071b EA000000 		.4byte	0xea
 1061 071f 14       		.byte	0x14
 1062 0720 0A       		.uleb128 0xa
 1063 0721 83030000 		.4byte	.LASF103
 1064 0725 0E       		.byte	0xe
 1065 0726 A501     		.2byte	0x1a5
 1066 0728 EA000000 		.4byte	0xea
 1067 072c 18       		.byte	0x18
 1068 072d 0A       		.uleb128 0xa
 1069 072e 89030000 		.4byte	.LASF104
 1070 0732 0E       		.byte	0xe
 1071 0733 A601     		.2byte	0x1a6
 1072 0735 EA000000 		.4byte	0xea
 1073 0739 1C       		.byte	0x1c
 1074 073a 0A       		.uleb128 0xa
 1075 073b 3E090000 		.4byte	.LASF105
 1076 073f 0E       		.byte	0xe
 1077 0740 A701     		.2byte	0x1a7
 1078 0742 EA000000 		.4byte	0xea
 1079 0746 20       		.byte	0x20
 1080 0747 09       		.uleb128 0x9
 1081 0748 434E5400 		.ascii	"CNT\000"
 1082 074c 0E       		.byte	0xe
 1083 074d A801     		.2byte	0x1a8
ARM GAS  /tmp/ccq9PJ8X.s 			page 20


 1084 074f EA000000 		.4byte	0xea
 1085 0753 24       		.byte	0x24
 1086 0754 09       		.uleb128 0x9
 1087 0755 50534300 		.ascii	"PSC\000"
 1088 0759 0E       		.byte	0xe
 1089 075a A901     		.2byte	0x1a9
 1090 075c EA000000 		.4byte	0xea
 1091 0760 28       		.byte	0x28
 1092 0761 09       		.uleb128 0x9
 1093 0762 41525200 		.ascii	"ARR\000"
 1094 0766 0E       		.byte	0xe
 1095 0767 AA01     		.2byte	0x1aa
 1096 0769 EA000000 		.4byte	0xea
 1097 076d 2C       		.byte	0x2c
 1098 076e 09       		.uleb128 0x9
 1099 076f 52435200 		.ascii	"RCR\000"
 1100 0773 0E       		.byte	0xe
 1101 0774 AB01     		.2byte	0x1ab
 1102 0776 EA000000 		.4byte	0xea
 1103 077a 30       		.byte	0x30
 1104 077b 09       		.uleb128 0x9
 1105 077c 43435200 		.ascii	"CCR\000"
 1106 0780 0E       		.byte	0xe
 1107 0781 AC01     		.2byte	0x1ac
 1108 0783 1D050000 		.4byte	0x51d
 1109 0787 34       		.byte	0x34
 1110 0788 0A       		.uleb128 0xa
 1111 0789 FE0A0000 		.4byte	.LASF106
 1112 078d 0E       		.byte	0xe
 1113 078e AD01     		.2byte	0x1ad
 1114 0790 EA000000 		.4byte	0xea
 1115 0794 44       		.byte	0x44
 1116 0795 09       		.uleb128 0x9
 1117 0796 44435200 		.ascii	"DCR\000"
 1118 079a 0E       		.byte	0xe
 1119 079b AE01     		.2byte	0x1ae
 1120 079d EA000000 		.4byte	0xea
 1121 07a1 48       		.byte	0x48
 1122 07a2 0A       		.uleb128 0xa
 1123 07a3 12010000 		.4byte	.LASF107
 1124 07a7 0E       		.byte	0xe
 1125 07a8 AF01     		.2byte	0x1af
 1126 07aa EA000000 		.4byte	0xea
 1127 07ae 4C       		.byte	0x4c
 1128 07af 09       		.uleb128 0x9
 1129 07b0 4F5200   		.ascii	"OR\000"
 1130 07b3 0E       		.byte	0xe
 1131 07b4 B001     		.2byte	0x1b0
 1132 07b6 EA000000 		.4byte	0xea
 1133 07ba 50       		.byte	0x50
 1134 07bb 0A       		.uleb128 0xa
 1135 07bc 8F030000 		.4byte	.LASF108
 1136 07c0 0E       		.byte	0xe
 1137 07c1 B101     		.2byte	0x1b1
 1138 07c3 EA000000 		.4byte	0xea
 1139 07c7 54       		.byte	0x54
 1140 07c8 0A       		.uleb128 0xa
ARM GAS  /tmp/ccq9PJ8X.s 			page 21


 1141 07c9 25040000 		.4byte	.LASF109
 1142 07cd 0E       		.byte	0xe
 1143 07ce B201     		.2byte	0x1b2
 1144 07d0 08050000 		.4byte	0x508
 1145 07d4 58       		.byte	0x58
 1146 07d5 00       		.byte	0
 1147 07d6 14       		.uleb128 0x14
 1148 07d7 61050000 		.4byte	.LASF110
 1149 07db 0E       		.byte	0xe
 1150 07dc B301     		.2byte	0x1b3
 1151 07de CA060000 		.4byte	0x6ca
 1152 07e2 18       		.uleb128 0x18
 1153 07e3 04       		.byte	0x4
 1154 07e4 0F       		.byte	0xf
 1155 07e5 38       		.byte	0x38
 1156 07e6 F7070000 		.4byte	0x7f7
 1157 07ea 08       		.uleb128 0x8
 1158 07eb EA070000 		.4byte	.LASF111
 1159 07ef 0F       		.byte	0xf
 1160 07f0 3C       		.byte	0x3c
 1161 07f1 FA000000 		.4byte	0xfa
 1162 07f5 00       		.byte	0
 1163 07f6 00       		.byte	0
 1164 07f7 03       		.uleb128 0x3
 1165 07f8 010A0000 		.4byte	.LASF112
 1166 07fc 0F       		.byte	0xf
 1167 07fd 3D       		.byte	0x3d
 1168 07fe E2070000 		.4byte	0x7e2
 1169 0802 19       		.uleb128 0x19
 1170 0803 04       		.byte	0x4
 1171 0804 08       		.byte	0x8
 1172 0805 FA       		.byte	0xfa
 1173 0806 5F080000 		.4byte	0x85f
 1174 080a 1A       		.uleb128 0x1a
 1175 080b 430B0000 		.4byte	.LASF113
 1176 080f 08       		.byte	0x8
 1177 0810 0101     		.2byte	0x101
 1178 0812 31010000 		.4byte	0x131
 1179 0816 1A       		.uleb128 0x1a
 1180 0817 64010000 		.4byte	.LASF114
 1181 081b 08       		.byte	0x8
 1182 081c 0801     		.2byte	0x108
 1183 081e 31010000 		.4byte	0x131
 1184 0822 1A       		.uleb128 0x1a
 1185 0823 CF030000 		.4byte	.LASF115
 1186 0827 08       		.byte	0x8
 1187 0828 0F01     		.2byte	0x10f
 1188 082a 48030000 		.4byte	0x348
 1189 082e 1A       		.uleb128 0x1a
 1190 082f A6020000 		.4byte	.LASF116
 1191 0833 08       		.byte	0x8
 1192 0834 1601     		.2byte	0x116
 1193 0836 5F080000 		.4byte	0x85f
 1194 083a 1A       		.uleb128 0x1a
 1195 083b 1F000000 		.4byte	.LASF117
 1196 083f 08       		.byte	0x8
 1197 0840 1E01     		.2byte	0x11e
ARM GAS  /tmp/ccq9PJ8X.s 			page 22


 1198 0842 8A080000 		.4byte	0x88a
 1199 0846 1A       		.uleb128 0x1a
 1200 0847 53040000 		.4byte	.LASF118
 1201 084b 08       		.byte	0x8
 1202 084c 2701     		.2byte	0x127
 1203 084e C1080000 		.4byte	0x8c1
 1204 0852 1A       		.uleb128 0x1a
 1205 0853 83020000 		.4byte	.LASF119
 1206 0857 08       		.byte	0x8
 1207 0858 2F01     		.2byte	0x12f
 1208 085a 3C010000 		.4byte	0x13c
 1209 085e 00       		.byte	0
 1210 085f 0B       		.uleb128 0xb
 1211 0860 04       		.byte	0x4
 1212 0861 60020000 		.4byte	0x260
 1213 0865 07       		.uleb128 0x7
 1214 0866 EF040000 		.4byte	.LASF120
 1215 086a 0C       		.byte	0xc
 1216 086b 10       		.byte	0x10
 1217 086c 34       		.byte	0x34
 1218 086d 8A080000 		.4byte	0x88a
 1219 0871 08       		.uleb128 0x8
 1220 0872 1E0A0000 		.4byte	.LASF121
 1221 0876 10       		.byte	0x10
 1222 0877 35       		.byte	0x35
 1223 0878 95020000 		.4byte	0x295
 1224 087c 00       		.byte	0
 1225 087d 08       		.uleb128 0x8
 1226 087e AC080000 		.4byte	.LASF122
 1227 0882 10       		.byte	0x10
 1228 0883 37       		.byte	0x37
 1229 0884 52010000 		.4byte	0x152
 1230 0888 08       		.byte	0x8
 1231 0889 00       		.byte	0
 1232 088a 0B       		.uleb128 0xb
 1233 088b 04       		.byte	0x4
 1234 088c 65080000 		.4byte	0x865
 1235 0890 07       		.uleb128 0x7
 1236 0891 550A0000 		.4byte	.LASF123
 1237 0895 10       		.byte	0x10
 1238 0896 11       		.byte	0x11
 1239 0897 39       		.byte	0x39
 1240 0898 C1080000 		.4byte	0x8c1
 1241 089c 08       		.uleb128 0x8
 1242 089d BD060000 		.4byte	.LASF124
 1243 08a1 11       		.byte	0x11
 1244 08a2 3A       		.byte	0x3a
 1245 08a3 95020000 		.4byte	0x295
 1246 08a7 00       		.byte	0
 1247 08a8 08       		.uleb128 0x8
 1248 08a9 4E010000 		.4byte	.LASF125
 1249 08ad 11       		.byte	0x11
 1250 08ae 3C       		.byte	0x3c
 1251 08af 6B020000 		.4byte	0x26b
 1252 08b3 08       		.byte	0x8
 1253 08b4 08       		.uleb128 0x8
 1254 08b5 D60B0000 		.4byte	.LASF126
ARM GAS  /tmp/ccq9PJ8X.s 			page 23


 1255 08b9 11       		.byte	0x11
 1256 08ba 3E       		.byte	0x3e
 1257 08bb 160A0000 		.4byte	0xa16
 1258 08bf 0C       		.byte	0xc
 1259 08c0 00       		.byte	0
 1260 08c1 0B       		.uleb128 0xb
 1261 08c2 04       		.byte	0x4
 1262 08c3 90080000 		.4byte	0x890
 1263 08c7 0B       		.uleb128 0xb
 1264 08c8 04       		.byte	0x4
 1265 08c9 D9080000 		.4byte	0x8d9
 1266 08cd 06       		.uleb128 0x6
 1267 08ce C7080000 		.4byte	0x8c7
 1268 08d2 04       		.uleb128 0x4
 1269 08d3 01       		.byte	0x1
 1270 08d4 08       		.byte	0x8
 1271 08d5 A1030000 		.4byte	.LASF127
 1272 08d9 05       		.uleb128 0x5
 1273 08da D2080000 		.4byte	0x8d2
 1274 08de 0B       		.uleb128 0xb
 1275 08df 04       		.byte	0x4
 1276 08e0 4A030000 		.4byte	0x34a
 1277 08e4 15       		.uleb128 0x15
 1278 08e5 25060000 		.4byte	0x625
 1279 08e9 F4080000 		.4byte	0x8f4
 1280 08ed 16       		.uleb128 0x16
 1281 08ee 37000000 		.4byte	0x37
 1282 08f2 1A       		.byte	0x1a
 1283 08f3 00       		.byte	0
 1284 08f4 1B       		.uleb128 0x1b
 1285 08f5 636800   		.ascii	"ch\000"
 1286 08f8 08       		.byte	0x8
 1287 08f9 0902     		.2byte	0x209
 1288 08fb 17040000 		.4byte	0x417
 1289 08ff 18       		.uleb128 0x18
 1290 0900 16       		.byte	0x16
 1291 0901 12       		.byte	0x12
 1292 0902 34       		.byte	0x34
 1293 0903 E0090000 		.4byte	0x9e0
 1294 0907 08       		.uleb128 0x8
 1295 0908 3C000000 		.4byte	.LASF128
 1296 090c 12       		.byte	0x12
 1297 090d 35       		.byte	0x35
 1298 090e E0090000 		.4byte	0x9e0
 1299 0912 00       		.byte	0
 1300 0913 08       		.uleb128 0x8
 1301 0914 CB040000 		.4byte	.LASF129
 1302 0918 12       		.byte	0x12
 1303 0919 36       		.byte	0x36
 1304 091a B4000000 		.4byte	0xb4
 1305 091e 04       		.byte	0x4
 1306 091f 08       		.uleb128 0x8
 1307 0920 8A0B0000 		.4byte	.LASF130
 1308 0924 12       		.byte	0x12
 1309 0925 37       		.byte	0x37
 1310 0926 B4000000 		.4byte	0xb4
 1311 092a 05       		.byte	0x5
ARM GAS  /tmp/ccq9PJ8X.s 			page 24


 1312 092b 08       		.uleb128 0x8
 1313 092c B2060000 		.4byte	.LASF131
 1314 0930 12       		.byte	0x12
 1315 0931 38       		.byte	0x38
 1316 0932 C4000000 		.4byte	0xc4
 1317 0936 06       		.byte	0x6
 1318 0937 08       		.uleb128 0x8
 1319 0938 07010000 		.4byte	.LASF132
 1320 093c 12       		.byte	0x12
 1321 093d 39       		.byte	0x39
 1322 093e B4000000 		.4byte	0xb4
 1323 0942 08       		.byte	0x8
 1324 0943 08       		.uleb128 0x8
 1325 0944 B2070000 		.4byte	.LASF133
 1326 0948 12       		.byte	0x12
 1327 0949 3A       		.byte	0x3a
 1328 094a B4000000 		.4byte	0xb4
 1329 094e 09       		.byte	0x9
 1330 094f 08       		.uleb128 0x8
 1331 0950 85010000 		.4byte	.LASF134
 1332 0954 12       		.byte	0x12
 1333 0955 3B       		.byte	0x3b
 1334 0956 B4000000 		.4byte	0xb4
 1335 095a 0A       		.byte	0xa
 1336 095b 08       		.uleb128 0x8
 1337 095c 01040000 		.4byte	.LASF135
 1338 0960 12       		.byte	0x12
 1339 0961 3C       		.byte	0x3c
 1340 0962 B4000000 		.4byte	0xb4
 1341 0966 0B       		.byte	0xb
 1342 0967 08       		.uleb128 0x8
 1343 0968 81000000 		.4byte	.LASF136
 1344 096c 12       		.byte	0x12
 1345 096d 3D       		.byte	0x3d
 1346 096e B4000000 		.4byte	0xb4
 1347 0972 0C       		.byte	0xc
 1348 0973 08       		.uleb128 0x8
 1349 0974 D6030000 		.4byte	.LASF137
 1350 0978 12       		.byte	0x12
 1351 0979 3E       		.byte	0x3e
 1352 097a B4000000 		.4byte	0xb4
 1353 097e 0D       		.byte	0xd
 1354 097f 08       		.uleb128 0x8
 1355 0980 7C0A0000 		.4byte	.LASF138
 1356 0984 12       		.byte	0x12
 1357 0985 3F       		.byte	0x3f
 1358 0986 B4000000 		.4byte	0xb4
 1359 098a 0E       		.byte	0xe
 1360 098b 08       		.uleb128 0x8
 1361 098c 26000000 		.4byte	.LASF139
 1362 0990 12       		.byte	0x12
 1363 0991 40       		.byte	0x40
 1364 0992 B4000000 		.4byte	0xb4
 1365 0996 0F       		.byte	0xf
 1366 0997 08       		.uleb128 0x8
 1367 0998 C40A0000 		.4byte	.LASF140
 1368 099c 12       		.byte	0x12
ARM GAS  /tmp/ccq9PJ8X.s 			page 25


 1369 099d 41       		.byte	0x41
 1370 099e B4000000 		.4byte	0xb4
 1371 09a2 10       		.byte	0x10
 1372 09a3 08       		.uleb128 0x8
 1373 09a4 F6010000 		.4byte	.LASF141
 1374 09a8 12       		.byte	0x12
 1375 09a9 43       		.byte	0x43
 1376 09aa B4000000 		.4byte	0xb4
 1377 09ae 11       		.byte	0x11
 1378 09af 08       		.uleb128 0x8
 1379 09b0 31090000 		.4byte	.LASF142
 1380 09b4 12       		.byte	0x12
 1381 09b5 44       		.byte	0x44
 1382 09b6 B4000000 		.4byte	0xb4
 1383 09ba 12       		.byte	0x12
 1384 09bb 08       		.uleb128 0x8
 1385 09bc 16080000 		.4byte	.LASF143
 1386 09c0 12       		.byte	0x12
 1387 09c1 45       		.byte	0x45
 1388 09c2 B4000000 		.4byte	0xb4
 1389 09c6 13       		.byte	0x13
 1390 09c7 08       		.uleb128 0x8
 1391 09c8 7A060000 		.4byte	.LASF144
 1392 09cc 12       		.byte	0x12
 1393 09cd 46       		.byte	0x46
 1394 09ce B4000000 		.4byte	0xb4
 1395 09d2 14       		.byte	0x14
 1396 09d3 08       		.uleb128 0x8
 1397 09d4 86080000 		.4byte	.LASF145
 1398 09d8 12       		.byte	0x12
 1399 09d9 48       		.byte	0x48
 1400 09da B4000000 		.4byte	0xb4
 1401 09de 15       		.byte	0x15
 1402 09df 00       		.byte	0
 1403 09e0 15       		.uleb128 0x15
 1404 09e1 D2080000 		.4byte	0x8d2
 1405 09e5 F0090000 		.4byte	0x9f0
 1406 09e9 16       		.uleb128 0x16
 1407 09ea 37000000 		.4byte	0x37
 1408 09ee 03       		.byte	0x3
 1409 09ef 00       		.byte	0
 1410 09f0 03       		.uleb128 0x3
 1411 09f1 750B0000 		.4byte	.LASF146
 1412 09f5 12       		.byte	0x12
 1413 09f6 49       		.byte	0x49
 1414 09f7 FF080000 		.4byte	0x8ff
 1415 09fb 05       		.uleb128 0x5
 1416 09fc F0090000 		.4byte	0x9f0
 1417 0a00 12       		.uleb128 0x12
 1418 0a01 58000000 		.4byte	.LASF147
 1419 0a05 12       		.byte	0x12
 1420 0a06 6E       		.byte	0x6e
 1421 0a07 FB090000 		.4byte	0x9fb
 1422 0a0b 03       		.uleb128 0x3
 1423 0a0c B40A0000 		.4byte	.LASF148
 1424 0a10 11       		.byte	0x11
 1425 0a11 34       		.byte	0x34
ARM GAS  /tmp/ccq9PJ8X.s 			page 26


 1426 0a12 90080000 		.4byte	0x890
 1427 0a16 0B       		.uleb128 0xb
 1428 0a17 04       		.byte	0x4
 1429 0a18 0B0A0000 		.4byte	0xa0b
 1430 0a1c 03       		.uleb128 0x3
 1431 0a1d 14040000 		.4byte	.LASF149
 1432 0a21 13       		.byte	0x13
 1433 0a22 34       		.byte	0x34
 1434 0a23 270A0000 		.4byte	0xa27
 1435 0a27 07       		.uleb128 0x7
 1436 0a28 340B0000 		.4byte	.LASF150
 1437 0a2c 14       		.byte	0x14
 1438 0a2d 13       		.byte	0x13
 1439 0a2e 39       		.byte	0x39
 1440 0a2f 700A0000 		.4byte	0xa70
 1441 0a33 08       		.uleb128 0x8
 1442 0a34 2F050000 		.4byte	.LASF151
 1443 0a38 13       		.byte	0x13
 1444 0a39 3A       		.byte	0x3a
 1445 0a3a 700A0000 		.4byte	0xa70
 1446 0a3e 00       		.byte	0
 1447 0a3f 08       		.uleb128 0x8
 1448 0a40 ED0B0000 		.4byte	.LASF152
 1449 0a44 13       		.byte	0x13
 1450 0a45 3D       		.byte	0x3d
 1451 0a46 6B020000 		.4byte	0x26b
 1452 0a4a 04       		.byte	0x4
 1453 0a4b 08       		.uleb128 0x8
 1454 0a4c D6070000 		.4byte	.LASF153
 1455 0a50 13       		.byte	0x13
 1456 0a51 3F       		.byte	0x3f
 1457 0a52 3C010000 		.4byte	0x13c
 1458 0a56 08       		.byte	0x8
 1459 0a57 08       		.uleb128 0x8
 1460 0a58 CE000000 		.4byte	.LASF154
 1461 0a5c 13       		.byte	0x13
 1462 0a5d 41       		.byte	0x41
 1463 0a5e 47010000 		.4byte	0x147
 1464 0a62 0C       		.byte	0xc
 1465 0a63 08       		.uleb128 0x8
 1466 0a64 BE070000 		.4byte	.LASF155
 1467 0a68 13       		.byte	0x13
 1468 0a69 43       		.byte	0x43
 1469 0a6a 47010000 		.4byte	0x147
 1470 0a6e 10       		.byte	0x10
 1471 0a6f 00       		.byte	0
 1472 0a70 0B       		.uleb128 0xb
 1473 0a71 04       		.byte	0x4
 1474 0a72 1C0A0000 		.4byte	0xa1c
 1475 0a76 07       		.uleb128 0x7
 1476 0a77 3A0A0000 		.4byte	.LASF156
 1477 0a7b 04       		.byte	0x4
 1478 0a7c 13       		.byte	0x13
 1479 0a7d 4A       		.byte	0x4a
 1480 0a7e 8F0A0000 		.4byte	0xa8f
 1481 0a82 08       		.uleb128 0x8
 1482 0a83 8F040000 		.4byte	.LASF157
ARM GAS  /tmp/ccq9PJ8X.s 			page 27


 1483 0a87 13       		.byte	0x13
 1484 0a88 4B       		.byte	0x4b
 1485 0a89 700A0000 		.4byte	0xa70
 1486 0a8d 00       		.byte	0
 1487 0a8e 00       		.byte	0
 1488 0a8f 03       		.uleb128 0x3
 1489 0a90 DA060000 		.4byte	.LASF158
 1490 0a94 13       		.byte	0x13
 1491 0a95 4E       		.byte	0x4e
 1492 0a96 760A0000 		.4byte	0xa76
 1493 0a9a 03       		.uleb128 0x3
 1494 0a9b 890A0000 		.4byte	.LASF159
 1495 0a9f 14       		.byte	0x14
 1496 0aa0 3F       		.byte	0x3f
 1497 0aa1 A50A0000 		.4byte	0xaa5
 1498 0aa5 07       		.uleb128 0x7
 1499 0aa6 55020000 		.4byte	.LASF160
 1500 0aaa 24       		.byte	0x24
 1501 0aab 14       		.byte	0x14
 1502 0aac 4D       		.byte	0x4d
 1503 0aad 120B0000 		.4byte	0xb12
 1504 0ab1 08       		.uleb128 0x8
 1505 0ab2 98090000 		.4byte	.LASF161
 1506 0ab6 14       		.byte	0x14
 1507 0ab7 4E       		.byte	0x4e
 1508 0ab8 95020000 		.4byte	0x295
 1509 0abc 00       		.byte	0
 1510 0abd 08       		.uleb128 0x8
 1511 0abe 97040000 		.4byte	.LASF162
 1512 0ac2 14       		.byte	0x14
 1513 0ac3 4F       		.byte	0x4f
 1514 0ac4 2C000000 		.4byte	0x2c
 1515 0ac8 08       		.byte	0x8
 1516 0ac9 08       		.uleb128 0x8
 1517 0aca 9F010000 		.4byte	.LASF163
 1518 0ace 14       		.byte	0x14
 1519 0acf 50       		.byte	0x50
 1520 0ad0 340B0000 		.4byte	0xb34
 1521 0ad4 0C       		.byte	0xc
 1522 0ad5 08       		.uleb128 0x8
 1523 0ad6 7F010000 		.4byte	.LASF164
 1524 0ada 14       		.byte	0x14
 1525 0adb 51       		.byte	0x51
 1526 0adc 340B0000 		.4byte	0xb34
 1527 0ae0 10       		.byte	0x10
 1528 0ae1 08       		.uleb128 0x8
 1529 0ae2 54050000 		.4byte	.LASF165
 1530 0ae6 14       		.byte	0x14
 1531 0ae7 53       		.byte	0x53
 1532 0ae8 340B0000 		.4byte	0xb34
 1533 0aec 14       		.byte	0x14
 1534 0aed 08       		.uleb128 0x8
 1535 0aee EE010000 		.4byte	.LASF166
 1536 0af2 14       		.byte	0x14
 1537 0af3 54       		.byte	0x54
 1538 0af4 340B0000 		.4byte	0xb34
 1539 0af8 18       		.byte	0x18
ARM GAS  /tmp/ccq9PJ8X.s 			page 28


 1540 0af9 08       		.uleb128 0x8
 1541 0afa B9010000 		.4byte	.LASF167
 1542 0afe 14       		.byte	0x14
 1543 0aff 55       		.byte	0x55
 1544 0b00 120B0000 		.4byte	0xb12
 1545 0b04 1C       		.byte	0x1c
 1546 0b05 08       		.uleb128 0x8
 1547 0b06 29030000 		.4byte	.LASF168
 1548 0b0a 14       		.byte	0x14
 1549 0b0b 56       		.byte	0x56
 1550 0b0c 48030000 		.4byte	0x348
 1551 0b10 20       		.byte	0x20
 1552 0b11 00       		.byte	0
 1553 0b12 03       		.uleb128 0x3
 1554 0b13 2E070000 		.4byte	.LASF169
 1555 0b17 14       		.byte	0x14
 1556 0b18 42       		.byte	0x42
 1557 0b19 1D0B0000 		.4byte	0xb1d
 1558 0b1d 0B       		.uleb128 0xb
 1559 0b1e 04       		.byte	0x4
 1560 0b1f 230B0000 		.4byte	0xb23
 1561 0b23 0D       		.uleb128 0xd
 1562 0b24 2E0B0000 		.4byte	0xb2e
 1563 0b28 0E       		.uleb128 0xe
 1564 0b29 2E0B0000 		.4byte	0xb2e
 1565 0b2d 00       		.byte	0
 1566 0b2e 0B       		.uleb128 0xb
 1567 0b2f 04       		.byte	0x4
 1568 0b30 9A0A0000 		.4byte	0xa9a
 1569 0b34 0B       		.uleb128 0xb
 1570 0b35 04       		.byte	0x4
 1571 0b36 B4000000 		.4byte	0xb4
 1572 0b3a 03       		.uleb128 0x3
 1573 0b3b 120B0000 		.4byte	.LASF170
 1574 0b3f 14       		.byte	0x14
 1575 0b40 64       		.byte	0x64
 1576 0b41 9A0A0000 		.4byte	0xa9a
 1577 0b45 03       		.uleb128 0x3
 1578 0b46 920B0000 		.4byte	.LASF171
 1579 0b4a 14       		.byte	0x14
 1580 0b4b 71       		.byte	0x71
 1581 0b4c 9A0A0000 		.4byte	0xa9a
 1582 0b50 1C       		.uleb128 0x1c
 1583 0b51 2C000000 		.4byte	0x2c
 1584 0b55 690B0000 		.4byte	0xb69
 1585 0b59 0E       		.uleb128 0xe
 1586 0b5a 48030000 		.4byte	0x348
 1587 0b5e 0E       		.uleb128 0xe
 1588 0b5f 690B0000 		.4byte	0xb69
 1589 0b63 0E       		.uleb128 0xe
 1590 0b64 2C000000 		.4byte	0x2c
 1591 0b68 00       		.byte	0
 1592 0b69 0B       		.uleb128 0xb
 1593 0b6a 04       		.byte	0x4
 1594 0b6b BF000000 		.4byte	0xbf
 1595 0b6f 0B       		.uleb128 0xb
 1596 0b70 04       		.byte	0x4
ARM GAS  /tmp/ccq9PJ8X.s 			page 29


 1597 0b71 500B0000 		.4byte	0xb50
 1598 0b75 1C       		.uleb128 0x1c
 1599 0b76 2C000000 		.4byte	0x2c
 1600 0b7a 8E0B0000 		.4byte	0xb8e
 1601 0b7e 0E       		.uleb128 0xe
 1602 0b7f 48030000 		.4byte	0x348
 1603 0b83 0E       		.uleb128 0xe
 1604 0b84 340B0000 		.4byte	0xb34
 1605 0b88 0E       		.uleb128 0xe
 1606 0b89 2C000000 		.4byte	0x2c
 1607 0b8d 00       		.byte	0
 1608 0b8e 0B       		.uleb128 0xb
 1609 0b8f 04       		.byte	0x4
 1610 0b90 750B0000 		.4byte	0xb75
 1611 0b94 1C       		.uleb128 0x1c
 1612 0b95 31010000 		.4byte	0x131
 1613 0b99 A80B0000 		.4byte	0xba8
 1614 0b9d 0E       		.uleb128 0xe
 1615 0b9e 48030000 		.4byte	0x348
 1616 0ba2 0E       		.uleb128 0xe
 1617 0ba3 B4000000 		.4byte	0xb4
 1618 0ba7 00       		.byte	0
 1619 0ba8 0B       		.uleb128 0xb
 1620 0ba9 04       		.byte	0x4
 1621 0baa 940B0000 		.4byte	0xb94
 1622 0bae 1C       		.uleb128 0x1c
 1623 0baf 31010000 		.4byte	0x131
 1624 0bb3 BD0B0000 		.4byte	0xbbd
 1625 0bb7 0E       		.uleb128 0xe
 1626 0bb8 48030000 		.4byte	0x348
 1627 0bbc 00       		.byte	0
 1628 0bbd 0B       		.uleb128 0xb
 1629 0bbe 04       		.byte	0x4
 1630 0bbf AE0B0000 		.4byte	0xbae
 1631 0bc3 18       		.uleb128 0x18
 1632 0bc4 0C       		.byte	0xc
 1633 0bc5 15       		.byte	0x15
 1634 0bc6 DA       		.byte	0xda
 1635 0bc7 080C0000 		.4byte	0xc08
 1636 0bcb 08       		.uleb128 0x8
 1637 0bcc 0D040000 		.4byte	.LASF172
 1638 0bd0 15       		.byte	0x15
 1639 0bd1 DB       		.byte	0xdb
 1640 0bd2 080C0000 		.4byte	0xc08
 1641 0bd6 00       		.byte	0
 1642 0bd7 08       		.uleb128 0x8
 1643 0bd8 C40B0000 		.4byte	.LASF173
 1644 0bdc 15       		.byte	0x15
 1645 0bdd DC       		.byte	0xdc
 1646 0bde 0E0C0000 		.4byte	0xc0e
 1647 0be2 04       		.byte	0x4
 1648 0be3 08       		.uleb128 0x8
 1649 0be4 AC030000 		.4byte	.LASF174
 1650 0be8 15       		.byte	0x15
 1651 0be9 DD       		.byte	0xdd
 1652 0bea B4000000 		.4byte	0xb4
 1653 0bee 08       		.byte	0x8
ARM GAS  /tmp/ccq9PJ8X.s 			page 30


 1654 0bef 08       		.uleb128 0x8
 1655 0bf0 B2080000 		.4byte	.LASF175
 1656 0bf4 15       		.byte	0x15
 1657 0bf5 DF       		.byte	0xdf
 1658 0bf6 B4000000 		.4byte	0xb4
 1659 0bfa 09       		.byte	0x9
 1660 0bfb 08       		.uleb128 0x8
 1661 0bfc 57090000 		.4byte	.LASF176
 1662 0c00 15       		.byte	0x15
 1663 0c01 E0       		.byte	0xe0
 1664 0c02 B4000000 		.4byte	0xb4
 1665 0c06 0A       		.byte	0xa
 1666 0c07 00       		.byte	0
 1667 0c08 0B       		.uleb128 0xb
 1668 0c09 04       		.byte	0x4
 1669 0c0a EC040000 		.4byte	0x4ec
 1670 0c0e 0B       		.uleb128 0xb
 1671 0c0f 04       		.byte	0x4
 1672 0c10 EA000000 		.4byte	0xea
 1673 0c14 03       		.uleb128 0x3
 1674 0c15 05000000 		.4byte	.LASF177
 1675 0c19 15       		.byte	0x15
 1676 0c1a E1       		.byte	0xe1
 1677 0c1b C30B0000 		.4byte	0xbc3
 1678 0c1f 05       		.uleb128 0x5
 1679 0c20 140C0000 		.4byte	0xc14
 1680 0c24 15       		.uleb128 0x15
 1681 0c25 1F0C0000 		.4byte	0xc1f
 1682 0c29 340C0000 		.4byte	0xc34
 1683 0c2d 16       		.uleb128 0x16
 1684 0c2e 37000000 		.4byte	0x37
 1685 0c32 0F       		.byte	0xf
 1686 0c33 00       		.byte	0
 1687 0c34 05       		.uleb128 0x5
 1688 0c35 240C0000 		.4byte	0xc24
 1689 0c39 11       		.uleb128 0x11
 1690 0c3a 1C050000 		.4byte	.LASF178
 1691 0c3e 15       		.byte	0x15
 1692 0c3f BB01     		.2byte	0x1bb
 1693 0c41 340C0000 		.4byte	0xc34
 1694 0c45 1C       		.uleb128 0x1c
 1695 0c46 31010000 		.4byte	0x131
 1696 0c4a 5E0C0000 		.4byte	0xc5e
 1697 0c4e 0E       		.uleb128 0xe
 1698 0c4f 48030000 		.4byte	0x348
 1699 0c53 0E       		.uleb128 0xe
 1700 0c54 B4000000 		.4byte	0xb4
 1701 0c58 0E       		.uleb128 0xe
 1702 0c59 5D010000 		.4byte	0x15d
 1703 0c5d 00       		.byte	0
 1704 0c5e 0B       		.uleb128 0xb
 1705 0c5f 04       		.byte	0x4
 1706 0c60 450C0000 		.4byte	0xc45
 1707 0c64 1C       		.uleb128 0x1c
 1708 0c65 31010000 		.4byte	0x131
 1709 0c69 780C0000 		.4byte	0xc78
 1710 0c6d 0E       		.uleb128 0xe
ARM GAS  /tmp/ccq9PJ8X.s 			page 31


 1711 0c6e 48030000 		.4byte	0x348
 1712 0c72 0E       		.uleb128 0xe
 1713 0c73 5D010000 		.4byte	0x15d
 1714 0c77 00       		.byte	0
 1715 0c78 0B       		.uleb128 0xb
 1716 0c79 04       		.byte	0x4
 1717 0c7a 640C0000 		.4byte	0xc64
 1718 0c7e 1C       		.uleb128 0x1c
 1719 0c7f 2C000000 		.4byte	0x2c
 1720 0c83 9C0C0000 		.4byte	0xc9c
 1721 0c87 0E       		.uleb128 0xe
 1722 0c88 48030000 		.4byte	0x348
 1723 0c8c 0E       		.uleb128 0xe
 1724 0c8d 690B0000 		.4byte	0xb69
 1725 0c91 0E       		.uleb128 0xe
 1726 0c92 2C000000 		.4byte	0x2c
 1727 0c96 0E       		.uleb128 0xe
 1728 0c97 5D010000 		.4byte	0x15d
 1729 0c9b 00       		.byte	0
 1730 0c9c 0B       		.uleb128 0xb
 1731 0c9d 04       		.byte	0x4
 1732 0c9e 7E0C0000 		.4byte	0xc7e
 1733 0ca2 1C       		.uleb128 0x1c
 1734 0ca3 2C000000 		.4byte	0x2c
 1735 0ca7 C00C0000 		.4byte	0xcc0
 1736 0cab 0E       		.uleb128 0xe
 1737 0cac 48030000 		.4byte	0x348
 1738 0cb0 0E       		.uleb128 0xe
 1739 0cb1 340B0000 		.4byte	0xb34
 1740 0cb5 0E       		.uleb128 0xe
 1741 0cb6 2C000000 		.4byte	0x2c
 1742 0cba 0E       		.uleb128 0xe
 1743 0cbb 5D010000 		.4byte	0x15d
 1744 0cbf 00       		.byte	0
 1745 0cc0 0B       		.uleb128 0xb
 1746 0cc1 04       		.byte	0x4
 1747 0cc2 A20C0000 		.4byte	0xca2
 1748 0cc6 04       		.uleb128 0x4
 1749 0cc7 01       		.byte	0x1
 1750 0cc8 02       		.byte	0x2
 1751 0cc9 7D030000 		.4byte	.LASF179
 1752 0ccd 18       		.uleb128 0x18
 1753 0cce 04       		.byte	0x4
 1754 0ccf 16       		.byte	0x16
 1755 0cd0 B3       		.byte	0xb3
 1756 0cd1 EE0C0000 		.4byte	0xcee
 1757 0cd5 17       		.uleb128 0x17
 1758 0cd6 73657400 		.ascii	"set\000"
 1759 0cda 16       		.byte	0x16
 1760 0cdb B4       		.byte	0xb4
 1761 0cdc C4000000 		.4byte	0xc4
 1762 0ce0 00       		.byte	0
 1763 0ce1 08       		.uleb128 0x8
 1764 0ce2 68040000 		.4byte	.LASF180
 1765 0ce6 16       		.byte	0x16
 1766 0ce7 B5       		.byte	0xb5
 1767 0ce8 C4000000 		.4byte	0xc4
ARM GAS  /tmp/ccq9PJ8X.s 			page 32


 1768 0cec 02       		.byte	0x2
 1769 0ced 00       		.byte	0
 1770 0cee 19       		.uleb128 0x19
 1771 0cef 04       		.byte	0x4
 1772 0cf0 16       		.byte	0x16
 1773 0cf1 B1       		.byte	0xb1
 1774 0cf2 090D0000 		.4byte	0xd09
 1775 0cf6 1D       		.uleb128 0x1d
 1776 0cf7 5700     		.ascii	"W\000"
 1777 0cf9 16       		.byte	0x16
 1778 0cfa B2       		.byte	0xb2
 1779 0cfb DF000000 		.4byte	0xdf
 1780 0cff 1D       		.uleb128 0x1d
 1781 0d00 4800     		.ascii	"H\000"
 1782 0d02 16       		.byte	0x16
 1783 0d03 B6       		.byte	0xb6
 1784 0d04 CD0C0000 		.4byte	0xccd
 1785 0d08 00       		.byte	0
 1786 0d09 06       		.uleb128 0x6
 1787 0d0a EE0C0000 		.4byte	0xcee
 1788 0d0e 18       		.uleb128 0x18
 1789 0d0f 2C       		.byte	0x2c
 1790 0d10 16       		.byte	0x16
 1791 0d11 A9       		.byte	0xa9
 1792 0d12 9B0D0000 		.4byte	0xd9b
 1793 0d16 08       		.uleb128 0x8
 1794 0d17 4E070000 		.4byte	.LASF181
 1795 0d1b 16       		.byte	0x16
 1796 0d1c AB       		.byte	0xab
 1797 0d1d EA000000 		.4byte	0xea
 1798 0d21 00       		.byte	0
 1799 0d22 08       		.uleb128 0x8
 1800 0d23 8A090000 		.4byte	.LASF182
 1801 0d27 16       		.byte	0x16
 1802 0d28 AC       		.byte	0xac
 1803 0d29 EA000000 		.4byte	0xea
 1804 0d2d 04       		.byte	0x4
 1805 0d2e 08       		.uleb128 0x8
 1806 0d2f 90050000 		.4byte	.LASF183
 1807 0d33 16       		.byte	0x16
 1808 0d34 AD       		.byte	0xad
 1809 0d35 EA000000 		.4byte	0xea
 1810 0d39 08       		.byte	0x8
 1811 0d3a 08       		.uleb128 0x8
 1812 0d3b 93010000 		.4byte	.LASF184
 1813 0d3f 16       		.byte	0x16
 1814 0d40 AE       		.byte	0xae
 1815 0d41 EA000000 		.4byte	0xea
 1816 0d45 0C       		.byte	0xc
 1817 0d46 17       		.uleb128 0x17
 1818 0d47 49445200 		.ascii	"IDR\000"
 1819 0d4b 16       		.byte	0x16
 1820 0d4c AF       		.byte	0xaf
 1821 0d4d EA000000 		.4byte	0xea
 1822 0d51 10       		.byte	0x10
 1823 0d52 17       		.uleb128 0x17
 1824 0d53 4F445200 		.ascii	"ODR\000"
ARM GAS  /tmp/ccq9PJ8X.s 			page 33


 1825 0d57 16       		.byte	0x16
 1826 0d58 B0       		.byte	0xb0
 1827 0d59 EA000000 		.4byte	0xea
 1828 0d5d 14       		.byte	0x14
 1829 0d5e 08       		.uleb128 0x8
 1830 0d5f 940A0000 		.4byte	.LASF185
 1831 0d63 16       		.byte	0x16
 1832 0d64 B7       		.byte	0xb7
 1833 0d65 090D0000 		.4byte	0xd09
 1834 0d69 18       		.byte	0x18
 1835 0d6a 08       		.uleb128 0x8
 1836 0d6b 5C050000 		.4byte	.LASF186
 1837 0d6f 16       		.byte	0x16
 1838 0d70 B8       		.byte	0xb8
 1839 0d71 EA000000 		.4byte	0xea
 1840 0d75 1C       		.byte	0x1c
 1841 0d76 08       		.uleb128 0x8
 1842 0d77 52090000 		.4byte	.LASF187
 1843 0d7b 16       		.byte	0x16
 1844 0d7c B9       		.byte	0xb9
 1845 0d7d EA000000 		.4byte	0xea
 1846 0d81 20       		.byte	0x20
 1847 0d82 08       		.uleb128 0x8
 1848 0d83 4D090000 		.4byte	.LASF188
 1849 0d87 16       		.byte	0x16
 1850 0d88 BA       		.byte	0xba
 1851 0d89 EA000000 		.4byte	0xea
 1852 0d8d 24       		.byte	0x24
 1853 0d8e 17       		.uleb128 0x17
 1854 0d8f 42525200 		.ascii	"BRR\000"
 1855 0d93 16       		.byte	0x16
 1856 0d94 BB       		.byte	0xbb
 1857 0d95 EA000000 		.4byte	0xea
 1858 0d99 28       		.byte	0x28
 1859 0d9a 00       		.byte	0
 1860 0d9b 03       		.uleb128 0x3
 1861 0d9c 30030000 		.4byte	.LASF189
 1862 0da0 16       		.byte	0x16
 1863 0da1 BC       		.byte	0xbc
 1864 0da2 0E0D0000 		.4byte	0xd0e
 1865 0da6 18       		.uleb128 0x18
 1866 0da7 1C       		.byte	0x1c
 1867 0da8 16       		.byte	0x16
 1868 0da9 C1       		.byte	0xc1
 1869 0daa 030E0000 		.4byte	0xe03
 1870 0dae 08       		.uleb128 0x8
 1871 0daf A6030000 		.4byte	.LASF190
 1872 0db3 16       		.byte	0x16
 1873 0db4 C3       		.byte	0xc3
 1874 0db5 DF000000 		.4byte	0xdf
 1875 0db9 00       		.byte	0
 1876 0dba 08       		.uleb128 0x8
 1877 0dbb D8040000 		.4byte	.LASF191
 1878 0dbf 16       		.byte	0x16
 1879 0dc0 C5       		.byte	0xc5
 1880 0dc1 DF000000 		.4byte	0xdf
 1881 0dc5 04       		.byte	0x4
ARM GAS  /tmp/ccq9PJ8X.s 			page 34


 1882 0dc6 08       		.uleb128 0x8
 1883 0dc7 6E040000 		.4byte	.LASF192
 1884 0dcb 16       		.byte	0x16
 1885 0dcc C7       		.byte	0xc7
 1886 0dcd DF000000 		.4byte	0xdf
 1887 0dd1 08       		.byte	0x8
 1888 0dd2 08       		.uleb128 0x8
 1889 0dd3 8A050000 		.4byte	.LASF193
 1890 0dd7 16       		.byte	0x16
 1891 0dd8 C9       		.byte	0xc9
 1892 0dd9 DF000000 		.4byte	0xdf
 1893 0ddd 0C       		.byte	0xc
 1894 0dde 17       		.uleb128 0x17
 1895 0ddf 6F647200 		.ascii	"odr\000"
 1896 0de3 16       		.byte	0x16
 1897 0de4 CB       		.byte	0xcb
 1898 0de5 DF000000 		.4byte	0xdf
 1899 0de9 10       		.byte	0x10
 1900 0dea 08       		.uleb128 0x8
 1901 0deb 35080000 		.4byte	.LASF194
 1902 0def 16       		.byte	0x16
 1903 0df0 CD       		.byte	0xcd
 1904 0df1 DF000000 		.4byte	0xdf
 1905 0df5 14       		.byte	0x14
 1906 0df6 08       		.uleb128 0x8
 1907 0df7 A9040000 		.4byte	.LASF195
 1908 0dfb 16       		.byte	0x16
 1909 0dfc CF       		.byte	0xcf
 1910 0dfd DF000000 		.4byte	0xdf
 1911 0e01 18       		.byte	0x18
 1912 0e02 00       		.byte	0
 1913 0e03 03       		.uleb128 0x3
 1914 0e04 3B010000 		.4byte	.LASF196
 1915 0e08 16       		.byte	0x16
 1916 0e09 D0       		.byte	0xd0
 1917 0e0a A60D0000 		.4byte	0xda6
 1918 0e0e 18       		.uleb128 0x18
 1919 0e0f FC       		.byte	0xfc
 1920 0e10 16       		.byte	0x16
 1921 0e11 D9       		.byte	0xd9
 1922 0e12 830E0000 		.4byte	0xe83
 1923 0e16 08       		.uleb128 0x8
 1924 0e17 DC080000 		.4byte	.LASF197
 1925 0e1b 16       		.byte	0x16
 1926 0e1c DC       		.byte	0xdc
 1927 0e1d 030E0000 		.4byte	0xe03
 1928 0e21 00       		.byte	0
 1929 0e22 08       		.uleb128 0x8
 1930 0e23 1D070000 		.4byte	.LASF198
 1931 0e27 16       		.byte	0x16
 1932 0e28 E0       		.byte	0xe0
 1933 0e29 030E0000 		.4byte	0xe03
 1934 0e2d 1C       		.byte	0x1c
 1935 0e2e 08       		.uleb128 0x8
 1936 0e2f 88040000 		.4byte	.LASF199
 1937 0e33 16       		.byte	0x16
 1938 0e34 E4       		.byte	0xe4
ARM GAS  /tmp/ccq9PJ8X.s 			page 35


 1939 0e35 030E0000 		.4byte	0xe03
 1940 0e39 38       		.byte	0x38
 1941 0e3a 08       		.uleb128 0x8
 1942 0e3b 4B030000 		.4byte	.LASF200
 1943 0e3f 16       		.byte	0x16
 1944 0e40 E8       		.byte	0xe8
 1945 0e41 030E0000 		.4byte	0xe03
 1946 0e45 54       		.byte	0x54
 1947 0e46 08       		.uleb128 0x8
 1948 0e47 E4000000 		.4byte	.LASF201
 1949 0e4b 16       		.byte	0x16
 1950 0e4c EC       		.byte	0xec
 1951 0e4d 030E0000 		.4byte	0xe03
 1952 0e51 70       		.byte	0x70
 1953 0e52 08       		.uleb128 0x8
 1954 0e53 2D0B0000 		.4byte	.LASF202
 1955 0e57 16       		.byte	0x16
 1956 0e58 F0       		.byte	0xf0
 1957 0e59 030E0000 		.4byte	0xe03
 1958 0e5d 8C       		.byte	0x8c
 1959 0e5e 08       		.uleb128 0x8
 1960 0e5f 91090000 		.4byte	.LASF203
 1961 0e63 16       		.byte	0x16
 1962 0e64 F4       		.byte	0xf4
 1963 0e65 030E0000 		.4byte	0xe03
 1964 0e69 A8       		.byte	0xa8
 1965 0e6a 08       		.uleb128 0x8
 1966 0e6b FC070000 		.4byte	.LASF204
 1967 0e6f 16       		.byte	0x16
 1968 0e70 F8       		.byte	0xf8
 1969 0e71 030E0000 		.4byte	0xe03
 1970 0e75 C4       		.byte	0xc4
 1971 0e76 08       		.uleb128 0x8
 1972 0e77 6D050000 		.4byte	.LASF205
 1973 0e7b 16       		.byte	0x16
 1974 0e7c FC       		.byte	0xfc
 1975 0e7d 030E0000 		.4byte	0xe03
 1976 0e81 E0       		.byte	0xe0
 1977 0e82 00       		.byte	0
 1978 0e83 03       		.uleb128 0x3
 1979 0e84 990A0000 		.4byte	.LASF206
 1980 0e88 16       		.byte	0x16
 1981 0e89 FE       		.byte	0xfe
 1982 0e8a 0E0E0000 		.4byte	0xe0e
 1983 0e8e 05       		.uleb128 0x5
 1984 0e8f 830E0000 		.4byte	0xe83
 1985 0e93 14       		.uleb128 0x14
 1986 0e94 0A020000 		.4byte	.LASF207
 1987 0e98 16       		.byte	0x16
 1988 0e99 1B01     		.2byte	0x11b
 1989 0e9b 9F0E0000 		.4byte	0xe9f
 1990 0e9f 0B       		.uleb128 0xb
 1991 0ea0 04       		.byte	0x4
 1992 0ea1 9B0D0000 		.4byte	0xd9b
 1993 0ea5 11       		.uleb128 0x11
 1994 0ea6 64020000 		.4byte	.LASF208
 1995 0eaa 16       		.byte	0x16
ARM GAS  /tmp/ccq9PJ8X.s 			page 36


 1996 0eab DA01     		.2byte	0x1da
 1997 0ead 8E0E0000 		.4byte	0xe8e
 1998 0eb1 1E       		.uleb128 0x1e
 1999 0eb2 07       		.byte	0x7
 2000 0eb3 01       		.byte	0x1
 2001 0eb4 5E000000 		.4byte	0x5e
 2002 0eb8 17       		.byte	0x17
 2003 0eb9 4A       		.byte	0x4a
 2004 0eba D10E0000 		.4byte	0xed1
 2005 0ebe 1F       		.uleb128 0x1f
 2006 0ebf 1C010000 		.4byte	.LASF209
 2007 0ec3 00       		.byte	0
 2008 0ec4 1F       		.uleb128 0x1f
 2009 0ec5 D3080000 		.4byte	.LASF210
 2010 0ec9 01       		.byte	0x1
 2011 0eca 1F       		.uleb128 0x1f
 2012 0ecb 260A0000 		.4byte	.LASF211
 2013 0ecf 02       		.byte	0x2
 2014 0ed0 00       		.byte	0
 2015 0ed1 03       		.uleb128 0x3
 2016 0ed2 F30A0000 		.4byte	.LASF212
 2017 0ed6 17       		.byte	0x17
 2018 0ed7 4E       		.byte	0x4e
 2019 0ed8 B10E0000 		.4byte	0xeb1
 2020 0edc 03       		.uleb128 0x3
 2021 0edd E0070000 		.4byte	.LASF213
 2022 0ee1 17       		.byte	0x17
 2023 0ee2 53       		.byte	0x53
 2024 0ee3 E70E0000 		.4byte	0xee7
 2025 0ee7 0C       		.uleb128 0xc
 2026 0ee8 E0070000 		.4byte	.LASF213
 2027 0eec 1C       		.byte	0x1c
 2028 0eed 18       		.byte	0x18
 2029 0eee 7901     		.2byte	0x179
 2030 0ef0 500F0000 		.4byte	0xf50
 2031 0ef4 0A       		.uleb128 0xa
 2032 0ef5 DE000000 		.4byte	.LASF214
 2033 0ef9 18       		.byte	0x18
 2034 0efa 7D01     		.2byte	0x17d
 2035 0efc D10E0000 		.4byte	0xed1
 2036 0f00 00       		.byte	0
 2037 0f01 0A       		.uleb128 0xa
 2038 0f02 D7000000 		.4byte	.LASF215
 2039 0f06 18       		.byte	0x18
 2040 0f07 8101     		.2byte	0x181
 2041 0f09 4B100000 		.4byte	0x104b
 2042 0f0d 04       		.byte	0x4
 2043 0f0e 0A       		.uleb128 0xa
 2044 0f0f 6E090000 		.4byte	.LASF216
 2045 0f13 18       		.byte	0x18
 2046 0f14 8501     		.2byte	0x185
 2047 0f16 960F0000 		.4byte	0xf96
 2048 0f1a 08       		.byte	0x8
 2049 0f1b 0A       		.uleb128 0xa
 2050 0f1c A1040000 		.4byte	.LASF217
 2051 0f20 18       		.byte	0x18
 2052 0f21 8901     		.2byte	0x189
ARM GAS  /tmp/ccq9PJ8X.s 			page 37


 2053 0f23 8A0F0000 		.4byte	0xf8a
 2054 0f27 0C       		.byte	0xc
 2055 0f28 0A       		.uleb128 0xa
 2056 0f29 A2070000 		.4byte	.LASF218
 2057 0f2d 18       		.byte	0x18
 2058 0f2e 8D01     		.2byte	0x18d
 2059 0f30 7E0F0000 		.4byte	0xf7e
 2060 0f34 10       		.byte	0x10
 2061 0f35 0A       		.uleb128 0xa
 2062 0f36 74050000 		.4byte	.LASF219
 2063 0f3a 18       		.byte	0x18
 2064 0f3b 9501     		.2byte	0x195
 2065 0f3d DF000000 		.4byte	0xdf
 2066 0f41 14       		.byte	0x14
 2067 0f42 09       		.uleb128 0x9
 2068 0f43 74696D00 		.ascii	"tim\000"
 2069 0f47 18       		.byte	0x18
 2070 0f48 9901     		.2byte	0x199
 2071 0f4a 51100000 		.4byte	0x1051
 2072 0f4e 18       		.byte	0x18
 2073 0f4f 00       		.byte	0
 2074 0f50 03       		.uleb128 0x3
 2075 0f51 C8070000 		.4byte	.LASF220
 2076 0f55 17       		.byte	0x17
 2077 0f56 5A       		.byte	0x5a
 2078 0f57 5B0F0000 		.4byte	0xf5b
 2079 0f5b 0B       		.uleb128 0xb
 2080 0f5c 04       		.byte	0x4
 2081 0f5d 610F0000 		.4byte	0xf61
 2082 0f61 0D       		.uleb128 0xd
 2083 0f62 6C0F0000 		.4byte	0xf6c
 2084 0f66 0E       		.uleb128 0xe
 2085 0f67 6C0F0000 		.4byte	0xf6c
 2086 0f6b 00       		.byte	0
 2087 0f6c 0B       		.uleb128 0xb
 2088 0f6d 04       		.byte	0x4
 2089 0f6e DC0E0000 		.4byte	0xedc
 2090 0f72 14       		.uleb128 0x14
 2091 0f73 2A040000 		.4byte	.LASF221
 2092 0f77 18       		.byte	0x18
 2093 0f78 2501     		.2byte	0x125
 2094 0f7a DF000000 		.4byte	0xdf
 2095 0f7e 14       		.uleb128 0x14
 2096 0f7f 48020000 		.4byte	.LASF222
 2097 0f83 18       		.byte	0x18
 2098 0f84 2A01     		.2byte	0x12a
 2099 0f86 B4000000 		.4byte	0xb4
 2100 0f8a 14       		.uleb128 0x14
 2101 0f8b C2000000 		.4byte	.LASF223
 2102 0f8f 18       		.byte	0x18
 2103 0f90 2F01     		.2byte	0x12f
 2104 0f92 DF000000 		.4byte	0xdf
 2105 0f96 14       		.uleb128 0x14
 2106 0f97 AC020000 		.4byte	.LASF224
 2107 0f9b 18       		.byte	0x18
 2108 0f9c 3401     		.2byte	0x134
 2109 0f9e DF000000 		.4byte	0xdf
ARM GAS  /tmp/ccq9PJ8X.s 			page 38


 2110 0fa2 13       		.uleb128 0x13
 2111 0fa3 08       		.byte	0x8
 2112 0fa4 18       		.byte	0x18
 2113 0fa5 3901     		.2byte	0x139
 2114 0fa7 C60F0000 		.4byte	0xfc6
 2115 0fab 0A       		.uleb128 0xa
 2116 0fac 500A0000 		.4byte	.LASF225
 2117 0fb0 18       		.byte	0x18
 2118 0fb1 3D01     		.2byte	0x13d
 2119 0fb3 720F0000 		.4byte	0xf72
 2120 0fb7 00       		.byte	0
 2121 0fb8 0A       		.uleb128 0xa
 2122 0fb9 32010000 		.4byte	.LASF226
 2123 0fbd 18       		.byte	0x18
 2124 0fbe 4301     		.2byte	0x143
 2125 0fc0 500F0000 		.4byte	0xf50
 2126 0fc4 04       		.byte	0x4
 2127 0fc5 00       		.byte	0
 2128 0fc6 14       		.uleb128 0x14
 2129 0fc7 F6000000 		.4byte	.LASF227
 2130 0fcb 18       		.byte	0x18
 2131 0fcc 4501     		.2byte	0x145
 2132 0fce A20F0000 		.4byte	0xfa2
 2133 0fd2 13       		.uleb128 0x13
 2134 0fd3 34       		.byte	0x34
 2135 0fd4 18       		.byte	0x18
 2136 0fd5 4A01     		.2byte	0x14a
 2137 0fd7 2A100000 		.4byte	0x102a
 2138 0fdb 0A       		.uleb128 0xa
 2139 0fdc 13070000 		.4byte	.LASF228
 2140 0fe0 18       		.byte	0x18
 2141 0fe1 5001     		.2byte	0x150
 2142 0fe3 DF000000 		.4byte	0xdf
 2143 0fe7 00       		.byte	0
 2144 0fe8 0A       		.uleb128 0xa
 2145 0fe9 6E090000 		.4byte	.LASF216
 2146 0fed 18       		.byte	0x18
 2147 0fee 5601     		.2byte	0x156
 2148 0ff0 960F0000 		.4byte	0xf96
 2149 0ff4 04       		.byte	0x4
 2150 0ff5 0A       		.uleb128 0xa
 2151 0ff6 32010000 		.4byte	.LASF226
 2152 0ffa 18       		.byte	0x18
 2153 0ffb 5C01     		.2byte	0x15c
 2154 0ffd 500F0000 		.4byte	0xf50
 2155 1001 08       		.byte	0x8
 2156 1002 0A       		.uleb128 0xa
 2157 1003 A2070000 		.4byte	.LASF218
 2158 1007 18       		.byte	0x18
 2159 1008 6001     		.2byte	0x160
 2160 100a 2A100000 		.4byte	0x102a
 2161 100e 0C       		.byte	0xc
 2162 100f 09       		.uleb128 0x9
 2163 1010 63723200 		.ascii	"cr2\000"
 2164 1014 18       		.byte	0x18
 2165 1015 6601     		.2byte	0x166
 2166 1017 DF000000 		.4byte	0xdf
ARM GAS  /tmp/ccq9PJ8X.s 			page 39


 2167 101b 2C       		.byte	0x2c
 2168 101c 0A       		.uleb128 0xa
 2169 101d 17010000 		.4byte	.LASF229
 2170 1021 18       		.byte	0x18
 2171 1022 7301     		.2byte	0x173
 2172 1024 DF000000 		.4byte	0xdf
 2173 1028 30       		.byte	0x30
 2174 1029 00       		.byte	0
 2175 102a 15       		.uleb128 0x15
 2176 102b C60F0000 		.4byte	0xfc6
 2177 102f 3A100000 		.4byte	0x103a
 2178 1033 16       		.uleb128 0x16
 2179 1034 37000000 		.4byte	0x37
 2180 1038 03       		.byte	0x3
 2181 1039 00       		.byte	0
 2182 103a 14       		.uleb128 0x14
 2183 103b AA0A0000 		.4byte	.LASF230
 2184 103f 18       		.byte	0x18
 2185 1040 7401     		.2byte	0x174
 2186 1042 D20F0000 		.4byte	0xfd2
 2187 1046 05       		.uleb128 0x5
 2188 1047 3A100000 		.4byte	0x103a
 2189 104b 0B       		.uleb128 0xb
 2190 104c 04       		.byte	0x4
 2191 104d 46100000 		.4byte	0x1046
 2192 1051 0B       		.uleb128 0xb
 2193 1052 04       		.byte	0x4
 2194 1053 D6070000 		.4byte	0x7d6
 2195 1057 11       		.uleb128 0x11
 2196 1058 E30A0000 		.4byte	.LASF231
 2197 105c 18       		.byte	0x18
 2198 105d C401     		.2byte	0x1c4
 2199 105f DC0E0000 		.4byte	0xedc
 2200 1063 1E       		.uleb128 0x1e
 2201 1064 07       		.byte	0x7
 2202 1065 01       		.byte	0x1
 2203 1066 5E000000 		.4byte	0x5e
 2204 106a 19       		.byte	0x19
 2205 106b 55       		.byte	0x55
 2206 106c 83100000 		.4byte	0x1083
 2207 1070 1F       		.uleb128 0x1f
 2208 1071 73030000 		.4byte	.LASF232
 2209 1075 00       		.byte	0
 2210 1076 1F       		.uleb128 0x1f
 2211 1077 B70B0000 		.4byte	.LASF233
 2212 107b 01       		.byte	0x1
 2213 107c 1F       		.uleb128 0x1f
 2214 107d DF090000 		.4byte	.LASF234
 2215 1081 02       		.byte	0x2
 2216 1082 00       		.byte	0
 2217 1083 03       		.uleb128 0x3
 2218 1084 C9090000 		.4byte	.LASF235
 2219 1088 19       		.byte	0x19
 2220 1089 59       		.byte	0x59
 2221 108a 63100000 		.4byte	0x1063
 2222 108e 03       		.uleb128 0x3
 2223 108f 7D090000 		.4byte	.LASF236
ARM GAS  /tmp/ccq9PJ8X.s 			page 40


 2224 1093 19       		.byte	0x19
 2225 1094 5E       		.byte	0x5e
 2226 1095 99100000 		.4byte	0x1099
 2227 1099 07       		.uleb128 0x7
 2228 109a 7D090000 		.4byte	.LASF236
 2229 109e 78       		.byte	0x78
 2230 109f 19       		.byte	0x19
 2231 10a0 78       		.byte	0x78
 2232 10a1 04110000 		.4byte	0x1104
 2233 10a5 17       		.uleb128 0x17
 2234 10a6 766D7400 		.ascii	"vmt\000"
 2235 10aa 19       		.byte	0x19
 2236 10ab 7A       		.byte	0x7a
 2237 10ac 82110000 		.4byte	0x1182
 2238 10b0 00       		.byte	0
 2239 10b1 08       		.uleb128 0x8
 2240 10b2 42070000 		.4byte	.LASF237
 2241 10b6 19       		.byte	0x19
 2242 10b7 7B       		.byte	0x7b
 2243 10b8 8F0A0000 		.4byte	0xa8f
 2244 10bc 04       		.byte	0x4
 2245 10bd 08       		.uleb128 0x8
 2246 10be DE000000 		.4byte	.LASF214
 2247 10c2 19       		.byte	0x19
 2248 10c3 7B       		.byte	0x7b
 2249 10c4 83100000 		.4byte	0x1083
 2250 10c8 08       		.byte	0x8
 2251 10c9 08       		.uleb128 0x8
 2252 10ca 5E0A0000 		.4byte	.LASF238
 2253 10ce 19       		.byte	0x19
 2254 10cf 7B       		.byte	0x7b
 2255 10d0 3A0B0000 		.4byte	0xb3a
 2256 10d4 0C       		.byte	0xc
 2257 10d5 08       		.uleb128 0x8
 2258 10d6 38020000 		.4byte	.LASF239
 2259 10da 19       		.byte	0x19
 2260 10db 7B       		.byte	0x7b
 2261 10dc 450B0000 		.4byte	0xb45
 2262 10e0 30       		.byte	0x30
 2263 10e1 17       		.uleb128 0x17
 2264 10e2 696200   		.ascii	"ib\000"
 2265 10e5 19       		.byte	0x19
 2266 10e6 7B       		.byte	0x7b
 2267 10e7 88110000 		.4byte	0x1188
 2268 10eb 54       		.byte	0x54
 2269 10ec 17       		.uleb128 0x17
 2270 10ed 6F6200   		.ascii	"ob\000"
 2271 10f0 19       		.byte	0x19
 2272 10f1 7B       		.byte	0x7b
 2273 10f2 88110000 		.4byte	0x1188
 2274 10f6 64       		.byte	0x64
 2275 10f7 08       		.uleb128 0x8
 2276 10f8 5E020000 		.4byte	.LASF240
 2277 10fc 19       		.byte	0x19
 2278 10fd 7B       		.byte	0x7b
 2279 10fe 98110000 		.4byte	0x1198
 2280 1102 74       		.byte	0x74
ARM GAS  /tmp/ccq9PJ8X.s 			page 41


 2281 1103 00       		.byte	0
 2282 1104 1B       		.uleb128 0x1b
 2283 1105 53443200 		.ascii	"SD2\000"
 2284 1109 1A       		.byte	0x1a
 2285 110a 1201     		.2byte	0x112
 2286 110c 8E100000 		.4byte	0x108e
 2287 1110 07       		.uleb128 0x7
 2288 1111 E9060000 		.4byte	.LASF241
 2289 1115 20       		.byte	0x20
 2290 1116 19       		.byte	0x19
 2291 1117 6D       		.byte	0x6d
 2292 1118 7D110000 		.4byte	0x117d
 2293 111c 08       		.uleb128 0x8
 2294 111d BC000000 		.4byte	.LASF242
 2295 1121 19       		.byte	0x19
 2296 1122 6E       		.byte	0x6e
 2297 1123 6F0B0000 		.4byte	0xb6f
 2298 1127 00       		.byte	0
 2299 1128 08       		.uleb128 0x8
 2300 1129 5C070000 		.4byte	.LASF243
 2301 112d 19       		.byte	0x19
 2302 112e 6E       		.byte	0x6e
 2303 112f 8E0B0000 		.4byte	0xb8e
 2304 1133 04       		.byte	0x4
 2305 1134 17       		.uleb128 0x17
 2306 1135 70757400 		.ascii	"put\000"
 2307 1139 19       		.byte	0x19
 2308 113a 6E       		.byte	0x6e
 2309 113b A80B0000 		.4byte	0xba8
 2310 113f 08       		.byte	0x8
 2311 1140 17       		.uleb128 0x17
 2312 1141 67657400 		.ascii	"get\000"
 2313 1145 19       		.byte	0x19
 2314 1146 6E       		.byte	0x6e
 2315 1147 BD0B0000 		.4byte	0xbbd
 2316 114b 0C       		.byte	0xc
 2317 114c 08       		.uleb128 0x8
 2318 114d EB000000 		.4byte	.LASF244
 2319 1151 19       		.byte	0x19
 2320 1152 6E       		.byte	0x6e
 2321 1153 5E0C0000 		.4byte	0xc5e
 2322 1157 10       		.byte	0x10
 2323 1158 08       		.uleb128 0x8
 2324 1159 E3030000 		.4byte	.LASF245
 2325 115d 19       		.byte	0x19
 2326 115e 6E       		.byte	0x6e
 2327 115f 780C0000 		.4byte	0xc78
 2328 1163 14       		.byte	0x14
 2329 1164 08       		.uleb128 0x8
 2330 1165 7A000000 		.4byte	.LASF246
 2331 1169 19       		.byte	0x19
 2332 116a 6E       		.byte	0x6e
 2333 116b 9C0C0000 		.4byte	0xc9c
 2334 116f 18       		.byte	0x18
 2335 1170 08       		.uleb128 0x8
 2336 1171 99010000 		.4byte	.LASF247
 2337 1175 19       		.byte	0x19
ARM GAS  /tmp/ccq9PJ8X.s 			page 42


 2338 1176 6E       		.byte	0x6e
 2339 1177 C00C0000 		.4byte	0xcc0
 2340 117b 1C       		.byte	0x1c
 2341 117c 00       		.byte	0
 2342 117d 05       		.uleb128 0x5
 2343 117e 10110000 		.4byte	0x1110
 2344 1182 0B       		.uleb128 0xb
 2345 1183 04       		.byte	0x4
 2346 1184 7D110000 		.4byte	0x117d
 2347 1188 15       		.uleb128 0x15
 2348 1189 B4000000 		.4byte	0xb4
 2349 118d 98110000 		.4byte	0x1198
 2350 1191 16       		.uleb128 0x16
 2351 1192 37000000 		.4byte	0x37
 2352 1196 0F       		.byte	0xf
 2353 1197 00       		.byte	0
 2354 1198 0B       		.uleb128 0xb
 2355 1199 04       		.byte	0x4
 2356 119a 0E060000 		.4byte	0x60e
 2357 119e 1E       		.uleb128 0x1e
 2358 119f 07       		.byte	0x7
 2359 11a0 01       		.byte	0x1
 2360 11a1 5E000000 		.4byte	0x5e
 2361 11a5 1B       		.byte	0x1b
 2362 11a6 46       		.byte	0x46
 2363 11a7 CA110000 		.4byte	0x11ca
 2364 11ab 1F       		.uleb128 0x1f
 2365 11ac DC010000 		.4byte	.LASF248
 2366 11b0 00       		.byte	0
 2367 11b1 1F       		.uleb128 0x1f
 2368 11b2 CA010000 		.4byte	.LASF249
 2369 11b6 01       		.byte	0x1
 2370 11b7 1F       		.uleb128 0x1f
 2371 11b8 9A060000 		.4byte	.LASF250
 2372 11bc 02       		.byte	0x2
 2373 11bd 1F       		.uleb128 0x1f
 2374 11be 87070000 		.4byte	.LASF251
 2375 11c2 03       		.byte	0x3
 2376 11c3 1F       		.uleb128 0x1f
 2377 11c4 200B0000 		.4byte	.LASF252
 2378 11c8 04       		.byte	0x4
 2379 11c9 00       		.byte	0
 2380 11ca 03       		.uleb128 0x3
 2381 11cb 7F0B0000 		.4byte	.LASF253
 2382 11cf 1B       		.byte	0x1b
 2383 11d0 4C       		.byte	0x4c
 2384 11d1 9E110000 		.4byte	0x119e
 2385 11d5 14       		.uleb128 0x14
 2386 11d6 BA030000 		.4byte	.LASF254
 2387 11da 1C       		.byte	0x1c
 2388 11db 9601     		.2byte	0x196
 2389 11dd E1110000 		.4byte	0x11e1
 2390 11e1 0C       		.uleb128 0xc
 2391 11e2 BA030000 		.4byte	.LASF254
 2392 11e6 30       		.byte	0x30
 2393 11e7 1C       		.byte	0x1c
 2394 11e8 BA01     		.2byte	0x1ba
ARM GAS  /tmp/ccq9PJ8X.s 			page 43


 2395 11ea 64120000 		.4byte	0x1264
 2396 11ee 0A       		.uleb128 0xa
 2397 11ef DE000000 		.4byte	.LASF214
 2398 11f3 1C       		.byte	0x1c
 2399 11f4 BE01     		.2byte	0x1be
 2400 11f6 CA110000 		.4byte	0x11ca
 2401 11fa 00       		.byte	0
 2402 11fb 0A       		.uleb128 0xa
 2403 11fc D7000000 		.4byte	.LASF215
 2404 1200 1C       		.byte	0x1c
 2405 1201 C201     		.2byte	0x1c2
 2406 1203 D6120000 		.4byte	0x12d6
 2407 1207 04       		.byte	0x4
 2408 1208 0A       		.uleb128 0xa
 2409 1209 120A0000 		.4byte	.LASF255
 2410 120d 1C       		.byte	0x1c
 2411 120e C701     		.2byte	0x1c7
 2412 1210 60020000 		.4byte	0x260
 2413 1214 08       		.byte	0x8
 2414 1215 0A       		.uleb128 0xa
 2415 1216 F9060000 		.4byte	.LASF256
 2416 121a 1C       		.byte	0x1c
 2417 121b CD01     		.2byte	0x1cd
 2418 121d 0B0A0000 		.4byte	0xa0b
 2419 1221 0C       		.byte	0xc
 2420 1222 09       		.uleb128 0x9
 2421 1223 73706900 		.ascii	"spi\000"
 2422 1227 1C       		.byte	0x1c
 2423 1228 D601     		.2byte	0x1d6
 2424 122a DC120000 		.4byte	0x12dc
 2425 122e 1C       		.byte	0x1c
 2426 122f 0A       		.uleb128 0xa
 2427 1230 89060000 		.4byte	.LASF257
 2428 1234 1C       		.byte	0x1c
 2429 1235 DA01     		.2byte	0x1da
 2430 1237 E2120000 		.4byte	0x12e2
 2431 123b 20       		.byte	0x20
 2432 123c 0A       		.uleb128 0xa
 2433 123d 48070000 		.4byte	.LASF258
 2434 1241 1C       		.byte	0x1c
 2435 1242 DE01     		.2byte	0x1de
 2436 1244 E2120000 		.4byte	0x12e2
 2437 1248 24       		.byte	0x24
 2438 1249 0A       		.uleb128 0xa
 2439 124a 24070000 		.4byte	.LASF259
 2440 124e 1C       		.byte	0x1c
 2441 124f E201     		.2byte	0x1e2
 2442 1251 DF000000 		.4byte	0xdf
 2443 1255 28       		.byte	0x28
 2444 1256 0A       		.uleb128 0xa
 2445 1257 DD0B0000 		.4byte	.LASF260
 2446 125b 1C       		.byte	0x1c
 2447 125c E601     		.2byte	0x1e6
 2448 125e DF000000 		.4byte	0xdf
 2449 1262 2C       		.byte	0x2c
 2450 1263 00       		.byte	0
 2451 1264 14       		.uleb128 0x14
ARM GAS  /tmp/ccq9PJ8X.s 			page 44


 2452 1265 3D030000 		.4byte	.LASF261
 2453 1269 1C       		.byte	0x1c
 2454 126a 9E01     		.2byte	0x19e
 2455 126c 70120000 		.4byte	0x1270
 2456 1270 0B       		.uleb128 0xb
 2457 1271 04       		.byte	0x4
 2458 1272 76120000 		.4byte	0x1276
 2459 1276 0D       		.uleb128 0xd
 2460 1277 81120000 		.4byte	0x1281
 2461 127b 0E       		.uleb128 0xe
 2462 127c 81120000 		.4byte	0x1281
 2463 1280 00       		.byte	0
 2464 1281 0B       		.uleb128 0xb
 2465 1282 04       		.byte	0x4
 2466 1283 D5110000 		.4byte	0x11d5
 2467 1287 13       		.uleb128 0x13
 2468 1288 0C       		.byte	0xc
 2469 1289 1C       		.byte	0x1c
 2470 128a A301     		.2byte	0x1a3
 2471 128c C5120000 		.4byte	0x12c5
 2472 1290 0A       		.uleb128 0xa
 2473 1291 5D010000 		.4byte	.LASF262
 2474 1295 1C       		.byte	0x1c
 2475 1296 A701     		.2byte	0x1a7
 2476 1298 64120000 		.4byte	0x1264
 2477 129c 00       		.byte	0
 2478 129d 0A       		.uleb128 0xa
 2479 129e AC000000 		.4byte	.LASF263
 2480 12a2 1C       		.byte	0x1c
 2481 12a3 AC01     		.2byte	0x1ac
 2482 12a5 930E0000 		.4byte	0xe93
 2483 12a9 04       		.byte	0x4
 2484 12aa 0A       		.uleb128 0xa
 2485 12ab C90B0000 		.4byte	.LASF264
 2486 12af 1C       		.byte	0x1c
 2487 12b0 B001     		.2byte	0x1b0
 2488 12b2 C4000000 		.4byte	0xc4
 2489 12b6 08       		.byte	0x8
 2490 12b7 09       		.uleb128 0x9
 2491 12b8 63723100 		.ascii	"cr1\000"
 2492 12bc 1C       		.byte	0x1c
 2493 12bd B401     		.2byte	0x1b4
 2494 12bf C4000000 		.4byte	0xc4
 2495 12c3 0A       		.byte	0xa
 2496 12c4 00       		.byte	0
 2497 12c5 14       		.uleb128 0x14
 2498 12c6 7D070000 		.4byte	.LASF265
 2499 12ca 1C       		.byte	0x1c
 2500 12cb B501     		.2byte	0x1b5
 2501 12cd 87120000 		.4byte	0x1287
 2502 12d1 05       		.uleb128 0x5
 2503 12d2 C5120000 		.4byte	0x12c5
 2504 12d6 0B       		.uleb128 0xb
 2505 12d7 04       		.byte	0x4
 2506 12d8 D1120000 		.4byte	0x12d1
 2507 12dc 0B       		.uleb128 0xb
 2508 12dd 04       		.byte	0x4
ARM GAS  /tmp/ccq9PJ8X.s 			page 45


 2509 12de 9F050000 		.4byte	0x59f
 2510 12e2 0B       		.uleb128 0xb
 2511 12e3 04       		.byte	0x4
 2512 12e4 1F0C0000 		.4byte	0xc1f
 2513 12e8 11       		.uleb128 0x11
 2514 12e9 F0000000 		.4byte	.LASF266
 2515 12ed 1C       		.byte	0x1c
 2516 12ee F201     		.2byte	0x1f2
 2517 12f0 D5110000 		.4byte	0x11d5
 2518 12f4 11       		.uleb128 0x11
 2519 12f5 3A040000 		.4byte	.LASF267
 2520 12f9 1C       		.byte	0x1c
 2521 12fa F601     		.2byte	0x1f6
 2522 12fc D5110000 		.4byte	0x11d5
 2523 1300 20       		.uleb128 0x20
 2524 1301 F1070000 		.4byte	.LASF280
 2525 1305 01       		.byte	0x1
 2526 1306 79       		.byte	0x79
 2527 1307 5D010000 		.4byte	0x15d
 2528 130b 00000000 		.4byte	.LFB264
 2529 130f 08000000 		.4byte	.LFE264-.LFB264
 2530 1313 01       		.uleb128 0x1
 2531 1314 9C       		.byte	0x9c
 2532 1315 32130000 		.4byte	0x1332
 2533 1319 21       		.uleb128 0x21
 2534 131a B3000000 		.4byte	.LASF268
 2535 131e 42130000 		.4byte	0x1342
 2536 1322 22       		.uleb128 0x22
 2537 1323 2A140000 		.4byte	0x142a
 2538 1327 00000000 		.4byte	.LBB16
 2539 132b 06000000 		.4byte	.LBE16-.LBB16
 2540 132f 01       		.byte	0x1
 2541 1330 7D       		.byte	0x7d
 2542 1331 00       		.byte	0
 2543 1332 15       		.uleb128 0x15
 2544 1333 D9080000 		.4byte	0x8d9
 2545 1337 42130000 		.4byte	0x1342
 2546 133b 16       		.uleb128 0x16
 2547 133c 37000000 		.4byte	0x37
 2548 1340 0A       		.byte	0xa
 2549 1341 00       		.byte	0
 2550 1342 05       		.uleb128 0x5
 2551 1343 32130000 		.4byte	0x1332
 2552 1347 23       		.uleb128 0x23
 2553 1348 27010000 		.4byte	.LASF269
 2554 134c 01       		.byte	0x1
 2555 134d 69       		.byte	0x69
 2556 134e 00000000 		.4byte	.LFB263
 2557 1352 08000000 		.4byte	.LFE263-.LFB263
 2558 1356 01       		.uleb128 0x1
 2559 1357 9C       		.byte	0x9c
 2560 1358 8C130000 		.4byte	0x138c
 2561 135c 24       		.uleb128 0x24
 2562 135d 72060000 		.4byte	.LASF272
 2563 1361 01       		.byte	0x1
 2564 1362 69       		.byte	0x69
 2565 1363 5D010000 		.4byte	0x15d
ARM GAS  /tmp/ccq9PJ8X.s 			page 46


 2566 1367 01       		.uleb128 0x1
 2567 1368 50       		.byte	0x50
 2568 1369 21       		.uleb128 0x21
 2569 136a B3000000 		.4byte	.LASF268
 2570 136e 42130000 		.4byte	0x1342
 2571 1372 25       		.uleb128 0x25
 2572 1373 36140000 		.4byte	0x1436
 2573 1377 00000000 		.4byte	.LBB14
 2574 137b 06000000 		.4byte	.LBE14-.LBB14
 2575 137f 01       		.byte	0x1
 2576 1380 6D       		.byte	0x6d
 2577 1381 26       		.uleb128 0x26
 2578 1382 42140000 		.4byte	0x1442
 2579 1386 00000000 		.4byte	.LLST1
 2580 138a 00       		.byte	0
 2581 138b 00       		.byte	0
 2582 138c 23       		.uleb128 0x23
 2583 138d D3090000 		.4byte	.LASF270
 2584 1391 01       		.byte	0x1
 2585 1392 5B       		.byte	0x5b
 2586 1393 00000000 		.4byte	.LFB262
 2587 1397 0A000000 		.4byte	.LFE262-.LFB262
 2588 139b 01       		.uleb128 0x1
 2589 139c 9C       		.byte	0x9c
 2590 139d B1130000 		.4byte	0x13b1
 2591 13a1 22       		.uleb128 0x22
 2592 13a2 4E140000 		.4byte	0x144e
 2593 13a6 00000000 		.4byte	.LBB12
 2594 13aa 08000000 		.4byte	.LBE12-.LBB12
 2595 13ae 01       		.byte	0x1
 2596 13af 5D       		.byte	0x5d
 2597 13b0 00       		.byte	0
 2598 13b1 23       		.uleb128 0x23
 2599 13b2 3A080000 		.4byte	.LASF271
 2600 13b6 01       		.byte	0x1
 2601 13b7 4D       		.byte	0x4d
 2602 13b8 00000000 		.4byte	.LFB261
 2603 13bc 10000000 		.4byte	.LFE261-.LFB261
 2604 13c0 01       		.uleb128 0x1
 2605 13c1 9C       		.byte	0x9c
 2606 13c2 F6130000 		.4byte	0x13f6
 2607 13c6 24       		.uleb128 0x24
 2608 13c7 72060000 		.4byte	.LASF272
 2609 13cb 01       		.byte	0x1
 2610 13cc 4D       		.byte	0x4d
 2611 13cd 5D010000 		.4byte	0x15d
 2612 13d1 01       		.uleb128 0x1
 2613 13d2 50       		.byte	0x50
 2614 13d3 21       		.uleb128 0x21
 2615 13d4 B3000000 		.4byte	.LASF268
 2616 13d8 06140000 		.4byte	0x1406
 2617 13dc 25       		.uleb128 0x25
 2618 13dd 56140000 		.4byte	0x1456
 2619 13e1 00000000 		.4byte	.LBB10
 2620 13e5 0E000000 		.4byte	.LBE10-.LBB10
 2621 13e9 01       		.byte	0x1
 2622 13ea 51       		.byte	0x51
ARM GAS  /tmp/ccq9PJ8X.s 			page 47


 2623 13eb 26       		.uleb128 0x26
 2624 13ec 62140000 		.4byte	0x1462
 2625 13f0 13000000 		.4byte	.LLST0
 2626 13f4 00       		.byte	0
 2627 13f5 00       		.byte	0
 2628 13f6 15       		.uleb128 0x15
 2629 13f7 D9080000 		.4byte	0x8d9
 2630 13fb 06140000 		.4byte	0x1406
 2631 13ff 16       		.uleb128 0x16
 2632 1400 37000000 		.4byte	0x37
 2633 1404 0C       		.byte	0xc
 2634 1405 00       		.byte	0
 2635 1406 05       		.uleb128 0x5
 2636 1407 F6130000 		.4byte	0x13f6
 2637 140b 23       		.uleb128 0x23
 2638 140c A60B0000 		.4byte	.LASF273
 2639 1410 01       		.byte	0x1
 2640 1411 3C       		.byte	0x3c
 2641 1412 00000000 		.4byte	.LFB260
 2642 1416 04000000 		.4byte	.LFE260-.LFB260
 2643 141a 01       		.uleb128 0x1
 2644 141b 9C       		.byte	0x9c
 2645 141c 2A140000 		.4byte	0x142a
 2646 1420 27       		.uleb128 0x27
 2647 1421 04000000 		.4byte	.LVL0
 2648 1425 6E140000 		.4byte	0x146e
 2649 1429 00       		.byte	0
 2650 142a 28       		.uleb128 0x28
 2651 142b A8010000 		.4byte	.LASF281
 2652 142f 02       		.byte	0x2
 2653 1430 B1       		.byte	0xb1
 2654 1431 5D010000 		.4byte	0x15d
 2655 1435 03       		.byte	0x3
 2656 1436 29       		.uleb128 0x29
 2657 1437 E8090000 		.4byte	.LASF274
 2658 143b 02       		.byte	0x2
 2659 143c A5       		.byte	0xa5
 2660 143d 03       		.byte	0x3
 2661 143e 4E140000 		.4byte	0x144e
 2662 1442 2A       		.uleb128 0x2a
 2663 1443 A10B0000 		.4byte	.LASF276
 2664 1447 02       		.byte	0x2
 2665 1448 A5       		.byte	0xa5
 2666 1449 5D010000 		.4byte	0x15d
 2667 144d 00       		.byte	0
 2668 144e 2B       		.uleb128 0x2b
 2669 144f 76040000 		.4byte	.LASF282
 2670 1453 02       		.byte	0x2
 2671 1454 99       		.byte	0x99
 2672 1455 03       		.byte	0x3
 2673 1456 29       		.uleb128 0x29
 2674 1457 22080000 		.4byte	.LASF275
 2675 145b 02       		.byte	0x2
 2676 145c 8D       		.byte	0x8d
 2677 145d 03       		.byte	0x3
 2678 145e 6E140000 		.4byte	0x146e
 2679 1462 2A       		.uleb128 0x2a
ARM GAS  /tmp/ccq9PJ8X.s 			page 48


 2680 1463 A10B0000 		.4byte	.LASF276
 2681 1467 02       		.byte	0x2
 2682 1468 8D       		.byte	0x8d
 2683 1469 5D010000 		.4byte	0x15d
 2684 146d 00       		.byte	0
 2685 146e 2C       		.uleb128 0x2c
 2686 146f 95030000 		.4byte	.LASF283
 2687 1473 95030000 		.4byte	.LASF283
 2688 1477 02       		.byte	0x2
 2689 1478 6F       		.byte	0x6f
 2690 1479 00       		.byte	0
 2691              		.section	.debug_abbrev,"",%progbits
 2692              	.Ldebug_abbrev0:
 2693 0000 01       		.uleb128 0x1
 2694 0001 11       		.uleb128 0x11
 2695 0002 01       		.byte	0x1
 2696 0003 25       		.uleb128 0x25
 2697 0004 0E       		.uleb128 0xe
 2698 0005 13       		.uleb128 0x13
 2699 0006 0B       		.uleb128 0xb
 2700 0007 03       		.uleb128 0x3
 2701 0008 0E       		.uleb128 0xe
 2702 0009 1B       		.uleb128 0x1b
 2703 000a 0E       		.uleb128 0xe
 2704 000b 55       		.uleb128 0x55
 2705 000c 17       		.uleb128 0x17
 2706 000d 11       		.uleb128 0x11
 2707 000e 01       		.uleb128 0x1
 2708 000f 10       		.uleb128 0x10
 2709 0010 17       		.uleb128 0x17
 2710 0011 00       		.byte	0
 2711 0012 00       		.byte	0
 2712 0013 02       		.uleb128 0x2
 2713 0014 24       		.uleb128 0x24
 2714 0015 00       		.byte	0
 2715 0016 0B       		.uleb128 0xb
 2716 0017 0B       		.uleb128 0xb
 2717 0018 3E       		.uleb128 0x3e
 2718 0019 0B       		.uleb128 0xb
 2719 001a 03       		.uleb128 0x3
 2720 001b 08       		.uleb128 0x8
 2721 001c 00       		.byte	0
 2722 001d 00       		.byte	0
 2723 001e 03       		.uleb128 0x3
 2724 001f 16       		.uleb128 0x16
 2725 0020 00       		.byte	0
 2726 0021 03       		.uleb128 0x3
 2727 0022 0E       		.uleb128 0xe
 2728 0023 3A       		.uleb128 0x3a
 2729 0024 0B       		.uleb128 0xb
 2730 0025 3B       		.uleb128 0x3b
 2731 0026 0B       		.uleb128 0xb
 2732 0027 49       		.uleb128 0x49
 2733 0028 13       		.uleb128 0x13
 2734 0029 00       		.byte	0
 2735 002a 00       		.byte	0
 2736 002b 04       		.uleb128 0x4
ARM GAS  /tmp/ccq9PJ8X.s 			page 49


 2737 002c 24       		.uleb128 0x24
 2738 002d 00       		.byte	0
 2739 002e 0B       		.uleb128 0xb
 2740 002f 0B       		.uleb128 0xb
 2741 0030 3E       		.uleb128 0x3e
 2742 0031 0B       		.uleb128 0xb
 2743 0032 03       		.uleb128 0x3
 2744 0033 0E       		.uleb128 0xe
 2745 0034 00       		.byte	0
 2746 0035 00       		.byte	0
 2747 0036 05       		.uleb128 0x5
 2748 0037 26       		.uleb128 0x26
 2749 0038 00       		.byte	0
 2750 0039 49       		.uleb128 0x49
 2751 003a 13       		.uleb128 0x13
 2752 003b 00       		.byte	0
 2753 003c 00       		.byte	0
 2754 003d 06       		.uleb128 0x6
 2755 003e 35       		.uleb128 0x35
 2756 003f 00       		.byte	0
 2757 0040 49       		.uleb128 0x49
 2758 0041 13       		.uleb128 0x13
 2759 0042 00       		.byte	0
 2760 0043 00       		.byte	0
 2761 0044 07       		.uleb128 0x7
 2762 0045 13       		.uleb128 0x13
 2763 0046 01       		.byte	0x1
 2764 0047 03       		.uleb128 0x3
 2765 0048 0E       		.uleb128 0xe
 2766 0049 0B       		.uleb128 0xb
 2767 004a 0B       		.uleb128 0xb
 2768 004b 3A       		.uleb128 0x3a
 2769 004c 0B       		.uleb128 0xb
 2770 004d 3B       		.uleb128 0x3b
 2771 004e 0B       		.uleb128 0xb
 2772 004f 01       		.uleb128 0x1
 2773 0050 13       		.uleb128 0x13
 2774 0051 00       		.byte	0
 2775 0052 00       		.byte	0
 2776 0053 08       		.uleb128 0x8
 2777 0054 0D       		.uleb128 0xd
 2778 0055 00       		.byte	0
 2779 0056 03       		.uleb128 0x3
 2780 0057 0E       		.uleb128 0xe
 2781 0058 3A       		.uleb128 0x3a
 2782 0059 0B       		.uleb128 0xb
 2783 005a 3B       		.uleb128 0x3b
 2784 005b 0B       		.uleb128 0xb
 2785 005c 49       		.uleb128 0x49
 2786 005d 13       		.uleb128 0x13
 2787 005e 38       		.uleb128 0x38
 2788 005f 0B       		.uleb128 0xb
 2789 0060 00       		.byte	0
 2790 0061 00       		.byte	0
 2791 0062 09       		.uleb128 0x9
 2792 0063 0D       		.uleb128 0xd
 2793 0064 00       		.byte	0
ARM GAS  /tmp/ccq9PJ8X.s 			page 50


 2794 0065 03       		.uleb128 0x3
 2795 0066 08       		.uleb128 0x8
 2796 0067 3A       		.uleb128 0x3a
 2797 0068 0B       		.uleb128 0xb
 2798 0069 3B       		.uleb128 0x3b
 2799 006a 05       		.uleb128 0x5
 2800 006b 49       		.uleb128 0x49
 2801 006c 13       		.uleb128 0x13
 2802 006d 38       		.uleb128 0x38
 2803 006e 0B       		.uleb128 0xb
 2804 006f 00       		.byte	0
 2805 0070 00       		.byte	0
 2806 0071 0A       		.uleb128 0xa
 2807 0072 0D       		.uleb128 0xd
 2808 0073 00       		.byte	0
 2809 0074 03       		.uleb128 0x3
 2810 0075 0E       		.uleb128 0xe
 2811 0076 3A       		.uleb128 0x3a
 2812 0077 0B       		.uleb128 0xb
 2813 0078 3B       		.uleb128 0x3b
 2814 0079 05       		.uleb128 0x5
 2815 007a 49       		.uleb128 0x49
 2816 007b 13       		.uleb128 0x13
 2817 007c 38       		.uleb128 0x38
 2818 007d 0B       		.uleb128 0xb
 2819 007e 00       		.byte	0
 2820 007f 00       		.byte	0
 2821 0080 0B       		.uleb128 0xb
 2822 0081 0F       		.uleb128 0xf
 2823 0082 00       		.byte	0
 2824 0083 0B       		.uleb128 0xb
 2825 0084 0B       		.uleb128 0xb
 2826 0085 49       		.uleb128 0x49
 2827 0086 13       		.uleb128 0x13
 2828 0087 00       		.byte	0
 2829 0088 00       		.byte	0
 2830 0089 0C       		.uleb128 0xc
 2831 008a 13       		.uleb128 0x13
 2832 008b 01       		.byte	0x1
 2833 008c 03       		.uleb128 0x3
 2834 008d 0E       		.uleb128 0xe
 2835 008e 0B       		.uleb128 0xb
 2836 008f 0B       		.uleb128 0xb
 2837 0090 3A       		.uleb128 0x3a
 2838 0091 0B       		.uleb128 0xb
 2839 0092 3B       		.uleb128 0x3b
 2840 0093 05       		.uleb128 0x5
 2841 0094 01       		.uleb128 0x1
 2842 0095 13       		.uleb128 0x13
 2843 0096 00       		.byte	0
 2844 0097 00       		.byte	0
 2845 0098 0D       		.uleb128 0xd
 2846 0099 15       		.uleb128 0x15
 2847 009a 01       		.byte	0x1
 2848 009b 27       		.uleb128 0x27
 2849 009c 19       		.uleb128 0x19
 2850 009d 01       		.uleb128 0x1
ARM GAS  /tmp/ccq9PJ8X.s 			page 51


 2851 009e 13       		.uleb128 0x13
 2852 009f 00       		.byte	0
 2853 00a0 00       		.byte	0
 2854 00a1 0E       		.uleb128 0xe
 2855 00a2 05       		.uleb128 0x5
 2856 00a3 00       		.byte	0
 2857 00a4 49       		.uleb128 0x49
 2858 00a5 13       		.uleb128 0x13
 2859 00a6 00       		.byte	0
 2860 00a7 00       		.byte	0
 2861 00a8 0F       		.uleb128 0xf
 2862 00a9 0F       		.uleb128 0xf
 2863 00aa 00       		.byte	0
 2864 00ab 0B       		.uleb128 0xb
 2865 00ac 0B       		.uleb128 0xb
 2866 00ad 00       		.byte	0
 2867 00ae 00       		.byte	0
 2868 00af 10       		.uleb128 0x10
 2869 00b0 13       		.uleb128 0x13
 2870 00b1 01       		.byte	0x1
 2871 00b2 03       		.uleb128 0x3
 2872 00b3 0E       		.uleb128 0xe
 2873 00b4 0B       		.uleb128 0xb
 2874 00b5 05       		.uleb128 0x5
 2875 00b6 3A       		.uleb128 0x3a
 2876 00b7 0B       		.uleb128 0xb
 2877 00b8 3B       		.uleb128 0x3b
 2878 00b9 05       		.uleb128 0x5
 2879 00ba 01       		.uleb128 0x1
 2880 00bb 13       		.uleb128 0x13
 2881 00bc 00       		.byte	0
 2882 00bd 00       		.byte	0
 2883 00be 11       		.uleb128 0x11
 2884 00bf 34       		.uleb128 0x34
 2885 00c0 00       		.byte	0
 2886 00c1 03       		.uleb128 0x3
 2887 00c2 0E       		.uleb128 0xe
 2888 00c3 3A       		.uleb128 0x3a
 2889 00c4 0B       		.uleb128 0xb
 2890 00c5 3B       		.uleb128 0x3b
 2891 00c6 05       		.uleb128 0x5
 2892 00c7 49       		.uleb128 0x49
 2893 00c8 13       		.uleb128 0x13
 2894 00c9 3F       		.uleb128 0x3f
 2895 00ca 19       		.uleb128 0x19
 2896 00cb 3C       		.uleb128 0x3c
 2897 00cc 19       		.uleb128 0x19
 2898 00cd 00       		.byte	0
 2899 00ce 00       		.byte	0
 2900 00cf 12       		.uleb128 0x12
 2901 00d0 34       		.uleb128 0x34
 2902 00d1 00       		.byte	0
 2903 00d2 03       		.uleb128 0x3
 2904 00d3 0E       		.uleb128 0xe
 2905 00d4 3A       		.uleb128 0x3a
 2906 00d5 0B       		.uleb128 0xb
 2907 00d6 3B       		.uleb128 0x3b
ARM GAS  /tmp/ccq9PJ8X.s 			page 52


 2908 00d7 0B       		.uleb128 0xb
 2909 00d8 49       		.uleb128 0x49
 2910 00d9 13       		.uleb128 0x13
 2911 00da 3F       		.uleb128 0x3f
 2912 00db 19       		.uleb128 0x19
 2913 00dc 3C       		.uleb128 0x3c
 2914 00dd 19       		.uleb128 0x19
 2915 00de 00       		.byte	0
 2916 00df 00       		.byte	0
 2917 00e0 13       		.uleb128 0x13
 2918 00e1 13       		.uleb128 0x13
 2919 00e2 01       		.byte	0x1
 2920 00e3 0B       		.uleb128 0xb
 2921 00e4 0B       		.uleb128 0xb
 2922 00e5 3A       		.uleb128 0x3a
 2923 00e6 0B       		.uleb128 0xb
 2924 00e7 3B       		.uleb128 0x3b
 2925 00e8 05       		.uleb128 0x5
 2926 00e9 01       		.uleb128 0x1
 2927 00ea 13       		.uleb128 0x13
 2928 00eb 00       		.byte	0
 2929 00ec 00       		.byte	0
 2930 00ed 14       		.uleb128 0x14
 2931 00ee 16       		.uleb128 0x16
 2932 00ef 00       		.byte	0
 2933 00f0 03       		.uleb128 0x3
 2934 00f1 0E       		.uleb128 0xe
 2935 00f2 3A       		.uleb128 0x3a
 2936 00f3 0B       		.uleb128 0xb
 2937 00f4 3B       		.uleb128 0x3b
 2938 00f5 05       		.uleb128 0x5
 2939 00f6 49       		.uleb128 0x49
 2940 00f7 13       		.uleb128 0x13
 2941 00f8 00       		.byte	0
 2942 00f9 00       		.byte	0
 2943 00fa 15       		.uleb128 0x15
 2944 00fb 01       		.uleb128 0x1
 2945 00fc 01       		.byte	0x1
 2946 00fd 49       		.uleb128 0x49
 2947 00fe 13       		.uleb128 0x13
 2948 00ff 01       		.uleb128 0x1
 2949 0100 13       		.uleb128 0x13
 2950 0101 00       		.byte	0
 2951 0102 00       		.byte	0
 2952 0103 16       		.uleb128 0x16
 2953 0104 21       		.uleb128 0x21
 2954 0105 00       		.byte	0
 2955 0106 49       		.uleb128 0x49
 2956 0107 13       		.uleb128 0x13
 2957 0108 2F       		.uleb128 0x2f
 2958 0109 0B       		.uleb128 0xb
 2959 010a 00       		.byte	0
 2960 010b 00       		.byte	0
 2961 010c 17       		.uleb128 0x17
 2962 010d 0D       		.uleb128 0xd
 2963 010e 00       		.byte	0
 2964 010f 03       		.uleb128 0x3
ARM GAS  /tmp/ccq9PJ8X.s 			page 53


 2965 0110 08       		.uleb128 0x8
 2966 0111 3A       		.uleb128 0x3a
 2967 0112 0B       		.uleb128 0xb
 2968 0113 3B       		.uleb128 0x3b
 2969 0114 0B       		.uleb128 0xb
 2970 0115 49       		.uleb128 0x49
 2971 0116 13       		.uleb128 0x13
 2972 0117 38       		.uleb128 0x38
 2973 0118 0B       		.uleb128 0xb
 2974 0119 00       		.byte	0
 2975 011a 00       		.byte	0
 2976 011b 18       		.uleb128 0x18
 2977 011c 13       		.uleb128 0x13
 2978 011d 01       		.byte	0x1
 2979 011e 0B       		.uleb128 0xb
 2980 011f 0B       		.uleb128 0xb
 2981 0120 3A       		.uleb128 0x3a
 2982 0121 0B       		.uleb128 0xb
 2983 0122 3B       		.uleb128 0x3b
 2984 0123 0B       		.uleb128 0xb
 2985 0124 01       		.uleb128 0x1
 2986 0125 13       		.uleb128 0x13
 2987 0126 00       		.byte	0
 2988 0127 00       		.byte	0
 2989 0128 19       		.uleb128 0x19
 2990 0129 17       		.uleb128 0x17
 2991 012a 01       		.byte	0x1
 2992 012b 0B       		.uleb128 0xb
 2993 012c 0B       		.uleb128 0xb
 2994 012d 3A       		.uleb128 0x3a
 2995 012e 0B       		.uleb128 0xb
 2996 012f 3B       		.uleb128 0x3b
 2997 0130 0B       		.uleb128 0xb
 2998 0131 01       		.uleb128 0x1
 2999 0132 13       		.uleb128 0x13
 3000 0133 00       		.byte	0
 3001 0134 00       		.byte	0
 3002 0135 1A       		.uleb128 0x1a
 3003 0136 0D       		.uleb128 0xd
 3004 0137 00       		.byte	0
 3005 0138 03       		.uleb128 0x3
 3006 0139 0E       		.uleb128 0xe
 3007 013a 3A       		.uleb128 0x3a
 3008 013b 0B       		.uleb128 0xb
 3009 013c 3B       		.uleb128 0x3b
 3010 013d 05       		.uleb128 0x5
 3011 013e 49       		.uleb128 0x49
 3012 013f 13       		.uleb128 0x13
 3013 0140 00       		.byte	0
 3014 0141 00       		.byte	0
 3015 0142 1B       		.uleb128 0x1b
 3016 0143 34       		.uleb128 0x34
 3017 0144 00       		.byte	0
 3018 0145 03       		.uleb128 0x3
 3019 0146 08       		.uleb128 0x8
 3020 0147 3A       		.uleb128 0x3a
 3021 0148 0B       		.uleb128 0xb
ARM GAS  /tmp/ccq9PJ8X.s 			page 54


 3022 0149 3B       		.uleb128 0x3b
 3023 014a 05       		.uleb128 0x5
 3024 014b 49       		.uleb128 0x49
 3025 014c 13       		.uleb128 0x13
 3026 014d 3F       		.uleb128 0x3f
 3027 014e 19       		.uleb128 0x19
 3028 014f 3C       		.uleb128 0x3c
 3029 0150 19       		.uleb128 0x19
 3030 0151 00       		.byte	0
 3031 0152 00       		.byte	0
 3032 0153 1C       		.uleb128 0x1c
 3033 0154 15       		.uleb128 0x15
 3034 0155 01       		.byte	0x1
 3035 0156 27       		.uleb128 0x27
 3036 0157 19       		.uleb128 0x19
 3037 0158 49       		.uleb128 0x49
 3038 0159 13       		.uleb128 0x13
 3039 015a 01       		.uleb128 0x1
 3040 015b 13       		.uleb128 0x13
 3041 015c 00       		.byte	0
 3042 015d 00       		.byte	0
 3043 015e 1D       		.uleb128 0x1d
 3044 015f 0D       		.uleb128 0xd
 3045 0160 00       		.byte	0
 3046 0161 03       		.uleb128 0x3
 3047 0162 08       		.uleb128 0x8
 3048 0163 3A       		.uleb128 0x3a
 3049 0164 0B       		.uleb128 0xb
 3050 0165 3B       		.uleb128 0x3b
 3051 0166 0B       		.uleb128 0xb
 3052 0167 49       		.uleb128 0x49
 3053 0168 13       		.uleb128 0x13
 3054 0169 00       		.byte	0
 3055 016a 00       		.byte	0
 3056 016b 1E       		.uleb128 0x1e
 3057 016c 04       		.uleb128 0x4
 3058 016d 01       		.byte	0x1
 3059 016e 3E       		.uleb128 0x3e
 3060 016f 0B       		.uleb128 0xb
 3061 0170 0B       		.uleb128 0xb
 3062 0171 0B       		.uleb128 0xb
 3063 0172 49       		.uleb128 0x49
 3064 0173 13       		.uleb128 0x13
 3065 0174 3A       		.uleb128 0x3a
 3066 0175 0B       		.uleb128 0xb
 3067 0176 3B       		.uleb128 0x3b
 3068 0177 0B       		.uleb128 0xb
 3069 0178 01       		.uleb128 0x1
 3070 0179 13       		.uleb128 0x13
 3071 017a 00       		.byte	0
 3072 017b 00       		.byte	0
 3073 017c 1F       		.uleb128 0x1f
 3074 017d 28       		.uleb128 0x28
 3075 017e 00       		.byte	0
 3076 017f 03       		.uleb128 0x3
 3077 0180 0E       		.uleb128 0xe
 3078 0181 1C       		.uleb128 0x1c
ARM GAS  /tmp/ccq9PJ8X.s 			page 55


 3079 0182 0B       		.uleb128 0xb
 3080 0183 00       		.byte	0
 3081 0184 00       		.byte	0
 3082 0185 20       		.uleb128 0x20
 3083 0186 2E       		.uleb128 0x2e
 3084 0187 01       		.byte	0x1
 3085 0188 3F       		.uleb128 0x3f
 3086 0189 19       		.uleb128 0x19
 3087 018a 03       		.uleb128 0x3
 3088 018b 0E       		.uleb128 0xe
 3089 018c 3A       		.uleb128 0x3a
 3090 018d 0B       		.uleb128 0xb
 3091 018e 3B       		.uleb128 0x3b
 3092 018f 0B       		.uleb128 0xb
 3093 0190 27       		.uleb128 0x27
 3094 0191 19       		.uleb128 0x19
 3095 0192 49       		.uleb128 0x49
 3096 0193 13       		.uleb128 0x13
 3097 0194 11       		.uleb128 0x11
 3098 0195 01       		.uleb128 0x1
 3099 0196 12       		.uleb128 0x12
 3100 0197 06       		.uleb128 0x6
 3101 0198 40       		.uleb128 0x40
 3102 0199 18       		.uleb128 0x18
 3103 019a 9742     		.uleb128 0x2117
 3104 019c 19       		.uleb128 0x19
 3105 019d 01       		.uleb128 0x1
 3106 019e 13       		.uleb128 0x13
 3107 019f 00       		.byte	0
 3108 01a0 00       		.byte	0
 3109 01a1 21       		.uleb128 0x21
 3110 01a2 34       		.uleb128 0x34
 3111 01a3 00       		.byte	0
 3112 01a4 03       		.uleb128 0x3
 3113 01a5 0E       		.uleb128 0xe
 3114 01a6 49       		.uleb128 0x49
 3115 01a7 13       		.uleb128 0x13
 3116 01a8 34       		.uleb128 0x34
 3117 01a9 19       		.uleb128 0x19
 3118 01aa 00       		.byte	0
 3119 01ab 00       		.byte	0
 3120 01ac 22       		.uleb128 0x22
 3121 01ad 1D       		.uleb128 0x1d
 3122 01ae 00       		.byte	0
 3123 01af 31       		.uleb128 0x31
 3124 01b0 13       		.uleb128 0x13
 3125 01b1 11       		.uleb128 0x11
 3126 01b2 01       		.uleb128 0x1
 3127 01b3 12       		.uleb128 0x12
 3128 01b4 06       		.uleb128 0x6
 3129 01b5 58       		.uleb128 0x58
 3130 01b6 0B       		.uleb128 0xb
 3131 01b7 59       		.uleb128 0x59
 3132 01b8 0B       		.uleb128 0xb
 3133 01b9 00       		.byte	0
 3134 01ba 00       		.byte	0
 3135 01bb 23       		.uleb128 0x23
ARM GAS  /tmp/ccq9PJ8X.s 			page 56


 3136 01bc 2E       		.uleb128 0x2e
 3137 01bd 01       		.byte	0x1
 3138 01be 3F       		.uleb128 0x3f
 3139 01bf 19       		.uleb128 0x19
 3140 01c0 03       		.uleb128 0x3
 3141 01c1 0E       		.uleb128 0xe
 3142 01c2 3A       		.uleb128 0x3a
 3143 01c3 0B       		.uleb128 0xb
 3144 01c4 3B       		.uleb128 0x3b
 3145 01c5 0B       		.uleb128 0xb
 3146 01c6 27       		.uleb128 0x27
 3147 01c7 19       		.uleb128 0x19
 3148 01c8 11       		.uleb128 0x11
 3149 01c9 01       		.uleb128 0x1
 3150 01ca 12       		.uleb128 0x12
 3151 01cb 06       		.uleb128 0x6
 3152 01cc 40       		.uleb128 0x40
 3153 01cd 18       		.uleb128 0x18
 3154 01ce 9742     		.uleb128 0x2117
 3155 01d0 19       		.uleb128 0x19
 3156 01d1 01       		.uleb128 0x1
 3157 01d2 13       		.uleb128 0x13
 3158 01d3 00       		.byte	0
 3159 01d4 00       		.byte	0
 3160 01d5 24       		.uleb128 0x24
 3161 01d6 05       		.uleb128 0x5
 3162 01d7 00       		.byte	0
 3163 01d8 03       		.uleb128 0x3
 3164 01d9 0E       		.uleb128 0xe
 3165 01da 3A       		.uleb128 0x3a
 3166 01db 0B       		.uleb128 0xb
 3167 01dc 3B       		.uleb128 0x3b
 3168 01dd 0B       		.uleb128 0xb
 3169 01de 49       		.uleb128 0x49
 3170 01df 13       		.uleb128 0x13
 3171 01e0 02       		.uleb128 0x2
 3172 01e1 18       		.uleb128 0x18
 3173 01e2 00       		.byte	0
 3174 01e3 00       		.byte	0
 3175 01e4 25       		.uleb128 0x25
 3176 01e5 1D       		.uleb128 0x1d
 3177 01e6 01       		.byte	0x1
 3178 01e7 31       		.uleb128 0x31
 3179 01e8 13       		.uleb128 0x13
 3180 01e9 11       		.uleb128 0x11
 3181 01ea 01       		.uleb128 0x1
 3182 01eb 12       		.uleb128 0x12
 3183 01ec 06       		.uleb128 0x6
 3184 01ed 58       		.uleb128 0x58
 3185 01ee 0B       		.uleb128 0xb
 3186 01ef 59       		.uleb128 0x59
 3187 01f0 0B       		.uleb128 0xb
 3188 01f1 00       		.byte	0
 3189 01f2 00       		.byte	0
 3190 01f3 26       		.uleb128 0x26
 3191 01f4 05       		.uleb128 0x5
 3192 01f5 00       		.byte	0
ARM GAS  /tmp/ccq9PJ8X.s 			page 57


 3193 01f6 31       		.uleb128 0x31
 3194 01f7 13       		.uleb128 0x13
 3195 01f8 02       		.uleb128 0x2
 3196 01f9 17       		.uleb128 0x17
 3197 01fa 00       		.byte	0
 3198 01fb 00       		.byte	0
 3199 01fc 27       		.uleb128 0x27
 3200 01fd 898201   		.uleb128 0x4109
 3201 0200 00       		.byte	0
 3202 0201 11       		.uleb128 0x11
 3203 0202 01       		.uleb128 0x1
 3204 0203 9542     		.uleb128 0x2115
 3205 0205 19       		.uleb128 0x19
 3206 0206 31       		.uleb128 0x31
 3207 0207 13       		.uleb128 0x13
 3208 0208 00       		.byte	0
 3209 0209 00       		.byte	0
 3210 020a 28       		.uleb128 0x28
 3211 020b 2E       		.uleb128 0x2e
 3212 020c 00       		.byte	0
 3213 020d 03       		.uleb128 0x3
 3214 020e 0E       		.uleb128 0xe
 3215 020f 3A       		.uleb128 0x3a
 3216 0210 0B       		.uleb128 0xb
 3217 0211 3B       		.uleb128 0x3b
 3218 0212 0B       		.uleb128 0xb
 3219 0213 27       		.uleb128 0x27
 3220 0214 19       		.uleb128 0x19
 3221 0215 49       		.uleb128 0x49
 3222 0216 13       		.uleb128 0x13
 3223 0217 20       		.uleb128 0x20
 3224 0218 0B       		.uleb128 0xb
 3225 0219 00       		.byte	0
 3226 021a 00       		.byte	0
 3227 021b 29       		.uleb128 0x29
 3228 021c 2E       		.uleb128 0x2e
 3229 021d 01       		.byte	0x1
 3230 021e 03       		.uleb128 0x3
 3231 021f 0E       		.uleb128 0xe
 3232 0220 3A       		.uleb128 0x3a
 3233 0221 0B       		.uleb128 0xb
 3234 0222 3B       		.uleb128 0x3b
 3235 0223 0B       		.uleb128 0xb
 3236 0224 27       		.uleb128 0x27
 3237 0225 19       		.uleb128 0x19
 3238 0226 20       		.uleb128 0x20
 3239 0227 0B       		.uleb128 0xb
 3240 0228 01       		.uleb128 0x1
 3241 0229 13       		.uleb128 0x13
 3242 022a 00       		.byte	0
 3243 022b 00       		.byte	0
 3244 022c 2A       		.uleb128 0x2a
 3245 022d 05       		.uleb128 0x5
 3246 022e 00       		.byte	0
 3247 022f 03       		.uleb128 0x3
 3248 0230 0E       		.uleb128 0xe
 3249 0231 3A       		.uleb128 0x3a
ARM GAS  /tmp/ccq9PJ8X.s 			page 58


 3250 0232 0B       		.uleb128 0xb
 3251 0233 3B       		.uleb128 0x3b
 3252 0234 0B       		.uleb128 0xb
 3253 0235 49       		.uleb128 0x49
 3254 0236 13       		.uleb128 0x13
 3255 0237 00       		.byte	0
 3256 0238 00       		.byte	0
 3257 0239 2B       		.uleb128 0x2b
 3258 023a 2E       		.uleb128 0x2e
 3259 023b 00       		.byte	0
 3260 023c 03       		.uleb128 0x3
 3261 023d 0E       		.uleb128 0xe
 3262 023e 3A       		.uleb128 0x3a
 3263 023f 0B       		.uleb128 0xb
 3264 0240 3B       		.uleb128 0x3b
 3265 0241 0B       		.uleb128 0xb
 3266 0242 27       		.uleb128 0x27
 3267 0243 19       		.uleb128 0x19
 3268 0244 20       		.uleb128 0x20
 3269 0245 0B       		.uleb128 0xb
 3270 0246 00       		.byte	0
 3271 0247 00       		.byte	0
 3272 0248 2C       		.uleb128 0x2c
 3273 0249 2E       		.uleb128 0x2e
 3274 024a 00       		.byte	0
 3275 024b 3F       		.uleb128 0x3f
 3276 024c 19       		.uleb128 0x19
 3277 024d 3C       		.uleb128 0x3c
 3278 024e 19       		.uleb128 0x19
 3279 024f 6E       		.uleb128 0x6e
 3280 0250 0E       		.uleb128 0xe
 3281 0251 03       		.uleb128 0x3
 3282 0252 0E       		.uleb128 0xe
 3283 0253 3A       		.uleb128 0x3a
 3284 0254 0B       		.uleb128 0xb
 3285 0255 3B       		.uleb128 0x3b
 3286 0256 0B       		.uleb128 0xb
 3287 0257 00       		.byte	0
 3288 0258 00       		.byte	0
 3289 0259 00       		.byte	0
 3290              		.section	.debug_loc,"",%progbits
 3291              	.Ldebug_loc0:
 3292              	.LLST1:
 3293 0000 04000000 		.4byte	.LVL5
 3294 0004 06000000 		.4byte	.LVL6
 3295 0008 0100     		.2byte	0x1
 3296 000a 50       		.byte	0x50
 3297 000b 00000000 		.4byte	0
 3298 000f 00000000 		.4byte	0
 3299              	.LLST0:
 3300 0013 04000000 		.4byte	.LVL2
 3301 0017 0E000000 		.4byte	.LVL3
 3302 001b 0100     		.2byte	0x1
 3303 001d 50       		.byte	0x50
 3304 001e 00000000 		.4byte	0
 3305 0022 00000000 		.4byte	0
 3306              		.section	.debug_aranges,"",%progbits
ARM GAS  /tmp/ccq9PJ8X.s 			page 59


 3307 0000 3C000000 		.4byte	0x3c
 3308 0004 0200     		.2byte	0x2
 3309 0006 00000000 		.4byte	.Ldebug_info0
 3310 000a 04       		.byte	0x4
 3311 000b 00       		.byte	0
 3312 000c 0000     		.2byte	0
 3313 000e 0000     		.2byte	0
 3314 0010 00000000 		.4byte	.LFB260
 3315 0014 04000000 		.4byte	.LFE260-.LFB260
 3316 0018 00000000 		.4byte	.LFB261
 3317 001c 10000000 		.4byte	.LFE261-.LFB261
 3318 0020 00000000 		.4byte	.LFB262
 3319 0024 0A000000 		.4byte	.LFE262-.LFB262
 3320 0028 00000000 		.4byte	.LFB263
 3321 002c 08000000 		.4byte	.LFE263-.LFB263
 3322 0030 00000000 		.4byte	.LFB264
 3323 0034 08000000 		.4byte	.LFE264-.LFB264
 3324 0038 00000000 		.4byte	0
 3325 003c 00000000 		.4byte	0
 3326              		.section	.debug_ranges,"",%progbits
 3327              	.Ldebug_ranges0:
 3328 0000 00000000 		.4byte	.LFB260
 3329 0004 04000000 		.4byte	.LFE260
 3330 0008 00000000 		.4byte	.LFB261
 3331 000c 10000000 		.4byte	.LFE261
 3332 0010 00000000 		.4byte	.LFB262
 3333 0014 0A000000 		.4byte	.LFE262
 3334 0018 00000000 		.4byte	.LFB263
 3335 001c 08000000 		.4byte	.LFE263
 3336 0020 00000000 		.4byte	.LFB264
 3337 0024 08000000 		.4byte	.LFE264
 3338 0028 00000000 		.4byte	0
 3339 002c 00000000 		.4byte	0
 3340              		.section	.debug_line,"",%progbits
 3341              	.Ldebug_line0:
 3342 0000 F4040000 		.section	.debug_str,"MS",%progbits,1
 3342      02006F04 
 3342      00000201 
 3342      FB0E0D00 
 3342      01010101 
 3343              	.LASF87:
 3344 0000 4D314152 		.ascii	"M1AR\000"
 3344      00
 3345              	.LASF177:
 3346 0005 73746D33 		.ascii	"stm32_dma_stream_t\000"
 3346      325F646D 
 3346      615F7374 
 3346      7265616D 
 3346      5F7400
 3347              	.LASF4:
 3348 0018 73697A65 		.ascii	"size_t\000"
 3348      5F7400
 3349              	.LASF117:
 3350 001f 77747365 		.ascii	"wtsemp\000"
 3350      6D7000
 3351              	.LASF139:
 3352 0026 63665F6F 		.ascii	"cf_off_name\000"
ARM GAS  /tmp/ccq9PJ8X.s 			page 60


 3352      66665F6E 
 3352      616D6500 
 3353              	.LASF30:
 3354 0032 73797374 		.ascii	"systime_t\000"
 3354      696D655F 
 3354      7400
 3355              	.LASF128:
 3356 003c 63685F69 		.ascii	"ch_identifier\000"
 3356      64656E74 
 3356      69666965 
 3356      7200
 3357              	.LASF35:
 3358 004a 705F6374 		.ascii	"p_ctx\000"
 3358      7800
 3359              	.LASF25:
 3360 0050 74707269 		.ascii	"tprio_t\000"
 3360      6F5F7400 
 3361              	.LASF147:
 3362 0058 63685F64 		.ascii	"ch_debug\000"
 3362      65627567 
 3362      00
 3363              	.LASF43:
 3364 0061 705F6D73 		.ascii	"p_msgqueue\000"
 3364      67717565 
 3364      756500
 3365              	.LASF59:
 3366 006c 725F6374 		.ascii	"r_ctx\000"
 3366      7800
 3367              	.LASF18:
 3368 0072 696E7433 		.ascii	"int32_t\000"
 3368      325F7400 
 3369              	.LASF246:
 3370 007a 77726974 		.ascii	"writet\000"
 3370      657400
 3371              	.LASF136:
 3372 0081 63665F6F 		.ascii	"cf_off_ctx\000"
 3372      66665F63 
 3372      747800
 3373              	.LASF63:
 3374 008c 76746675 		.ascii	"vtfunc_t\000"
 3374      6E635F74 
 3374      00
 3375              	.LASF72:
 3376 0095 63685F76 		.ascii	"ch_virtual_timers_list\000"
 3376      69727475 
 3376      616C5F74 
 3376      696D6572 
 3376      735F6C69 
 3377              	.LASF263:
 3378 00ac 7373706F 		.ascii	"ssport\000"
 3378      727400
 3379              	.LASF268:
 3380 00b3 5F5F6675 		.ascii	"__func__\000"
 3380      6E635F5F 
 3380      00
 3381              	.LASF242:
 3382 00bc 77726974 		.ascii	"write\000"
ARM GAS  /tmp/ccq9PJ8X.s 			page 61


 3382      6500
 3383              	.LASF223:
 3384 00c2 70776D63 		.ascii	"pwmchnmsk_t\000"
 3384      686E6D73 
 3384      6B5F7400 
 3385              	.LASF154:
 3386 00ce 656C5F66 		.ascii	"el_flags\000"
 3386      6C616773 
 3386      00
 3387              	.LASF215:
 3388 00d7 636F6E66 		.ascii	"config\000"
 3388      696700
 3389              	.LASF214:
 3390 00de 73746174 		.ascii	"state\000"
 3390      6500
 3391              	.LASF201:
 3392 00e4 50454461 		.ascii	"PEData\000"
 3392      746100
 3393              	.LASF244:
 3394 00eb 70757474 		.ascii	"putt\000"
 3394      00
 3395              	.LASF266:
 3396 00f0 53504944 		.ascii	"SPID1\000"
 3396      3100
 3397              	.LASF227:
 3398 00f6 50574D43 		.ascii	"PWMChannelConfig\000"
 3398      68616E6E 
 3398      656C436F 
 3398      6E666967 
 3398      00
 3399              	.LASF132:
 3400 0107 63685F70 		.ascii	"ch_ptrsize\000"
 3400      74727369 
 3400      7A6500
 3401              	.LASF107:
 3402 0112 444D4152 		.ascii	"DMAR\000"
 3402      00
 3403              	.LASF229:
 3404 0117 64696572 		.ascii	"dier\000"
 3404      00
 3405              	.LASF209:
 3406 011c 50574D5F 		.ascii	"PWM_UNINIT\000"
 3406      554E494E 
 3406      495400
 3407              	.LASF269:
 3408 0127 73745365 		.ascii	"stSetAlarm\000"
 3408      74416C61 
 3408      726D00
 3409              	.LASF226:
 3410 0132 63616C6C 		.ascii	"callback\000"
 3410      6261636B 
 3410      00
 3411              	.LASF196:
 3412 013b 73746D33 		.ascii	"stm32_gpio_setup_t\000"
 3412      325F6770 
 3412      696F5F73 
 3412      65747570 
ARM GAS  /tmp/ccq9PJ8X.s 			page 62


 3412      5F7400
 3413              	.LASF125:
 3414 014e 6D5F6F77 		.ascii	"m_owner\000"
 3414      6E657200 
 3415              	.LASF70:
 3416 0156 76745F70 		.ascii	"vt_par\000"
 3416      617200
 3417              	.LASF262:
 3418 015d 656E645F 		.ascii	"end_cb\000"
 3418      636200
 3419              	.LASF114:
 3420 0164 65786974 		.ascii	"exitcode\000"
 3420      636F6465 
 3420      00
 3421              	.LASF92:
 3422 016d 49325343 		.ascii	"I2SCFGR\000"
 3422      46475200 
 3423              	.LASF5:
 3424 0175 5F5F7569 		.ascii	"__uint8_t\000"
 3424      6E74385F 
 3424      7400
 3425              	.LASF164:
 3426 017f 715F746F 		.ascii	"q_top\000"
 3426      7000
 3427              	.LASF134:
 3428 0185 63685F74 		.ascii	"ch_threadsize\000"
 3428      68726561 
 3428      6473697A 
 3428      6500
 3429              	.LASF184:
 3430 0193 50555044 		.ascii	"PUPDR\000"
 3430      5200
 3431              	.LASF247:
 3432 0199 72656164 		.ascii	"readt\000"
 3432      7400
 3433              	.LASF163:
 3434 019f 715F6275 		.ascii	"q_buffer\000"
 3434      66666572 
 3434      00
 3435              	.LASF281:
 3436 01a8 73745F6C 		.ascii	"st_lld_get_alarm\000"
 3436      6C645F67 
 3436      65745F61 
 3436      6C61726D 
 3436      00
 3437              	.LASF167:
 3438 01b9 715F6E6F 		.ascii	"q_notify\000"
 3438      74696679 
 3438      00
 3439              	.LASF36:
 3440 01c2 705F6E65 		.ascii	"p_newer\000"
 3440      77657200 
 3441              	.LASF249:
 3442 01ca 5350495F 		.ascii	"SPI_STOP\000"
 3442      53544F50 
 3442      00
 3443              	.LASF11:
ARM GAS  /tmp/ccq9PJ8X.s 			page 63


 3444 01d3 6C6F6E67 		.ascii	"long int\000"
 3444      20696E74 
 3444      00
 3445              	.LASF248:
 3446 01dc 5350495F 		.ascii	"SPI_UNINIT\000"
 3446      554E494E 
 3446      495400
 3447              	.LASF32:
 3448 01e7 705F6E65 		.ascii	"p_next\000"
 3448      787400
 3449              	.LASF166:
 3450 01ee 715F7264 		.ascii	"q_rdptr\000"
 3450      70747200 
 3451              	.LASF141:
 3452 01f6 63665F6F 		.ascii	"cf_off_state\000"
 3452      66665F73 
 3452      74617465 
 3452      00
 3453              	.LASF33:
 3454 0203 705F7072 		.ascii	"p_prev\000"
 3454      657600
 3455              	.LASF207:
 3456 020a 696F706F 		.ascii	"ioportid_t\000"
 3456      72746964 
 3456      5F7400
 3457              	.LASF23:
 3458 0215 74737461 		.ascii	"tstate_t\000"
 3458      74655F74 
 3458      00
 3459              	.LASF53:
 3460 021e 74687265 		.ascii	"threads_queue_t\000"
 3460      6164735F 
 3460      71756575 
 3460      655F7400 
 3461              	.LASF46:
 3462 022e 705F6D74 		.ascii	"p_mtxlist\000"
 3462      786C6973 
 3462      7400
 3463              	.LASF239:
 3464 0238 6F717565 		.ascii	"oqueue\000"
 3464      756500
 3465              	.LASF97:
 3466 023f 72656761 		.ascii	"regarm_t\000"
 3466      726D5F74 
 3466      00
 3467              	.LASF222:
 3468 0248 70776D63 		.ascii	"pwmchannel_t\000"
 3468      68616E6E 
 3468      656C5F74 
 3468      00
 3469              	.LASF160:
 3470 0255 696F5F71 		.ascii	"io_queue\000"
 3470      75657565 
 3470      00
 3471              	.LASF240:
 3472 025e 75736172 		.ascii	"usart\000"
 3472      7400
ARM GAS  /tmp/ccq9PJ8X.s 			page 64


 3473              	.LASF208:
 3474 0264 70616C5F 		.ascii	"pal_default_config\000"
 3474      64656661 
 3474      756C745F 
 3474      636F6E66 
 3474      696700
 3475              	.LASF3:
 3476 0277 7369676E 		.ascii	"signed char\000"
 3476      65642063 
 3476      68617200 
 3477              	.LASF119:
 3478 0283 65776D61 		.ascii	"ewmask\000"
 3478      736B00
 3479              	.LASF16:
 3480 028a 75696E74 		.ascii	"uint8_t\000"
 3480      385F7400 
 3481              	.LASF27:
 3482 0292 6576656E 		.ascii	"eventmask_t\000"
 3482      746D6173 
 3482      6B5F7400 
 3483              	.LASF99:
 3484 029e 636F6E74 		.ascii	"context\000"
 3484      65787400 
 3485              	.LASF116:
 3486 02a6 77747472 		.ascii	"wttrp\000"
 3486      7000
 3487              	.LASF224:
 3488 02ac 70776D63 		.ascii	"pwmcnt_t\000"
 3488      6E745F74 
 3488      00
 3489              	.LASF279:
 3490 02b5 2F686F6D 		.ascii	"/home/acse-lab/Documents/TeamK/e-puck2_main-process"
 3490      652F6163 
 3490      73652D6C 
 3490      61622F44 
 3490      6F63756D 
 3491 02e8 6F722F43 		.ascii	"or/ChibiOS/demos/STM32/RT-STM32F407-DISCOVERY-G++/\000"
 3491      68696269 
 3491      4F532F64 
 3491      656D6F73 
 3491      2F53544D 
 3492              	.LASF6:
 3493 031b 756E7369 		.ascii	"unsigned char\000"
 3493      676E6564 
 3493      20636861 
 3493      7200
 3494              	.LASF168:
 3495 0329 715F6C69 		.ascii	"q_link\000"
 3495      6E6B00
 3496              	.LASF189:
 3497 0330 73746D33 		.ascii	"stm32_gpio_t\000"
 3497      325F6770 
 3497      696F5F74 
 3497      00
 3498              	.LASF261:
 3499 033d 73706963 		.ascii	"spicallback_t\000"
 3499      616C6C62 
ARM GAS  /tmp/ccq9PJ8X.s 			page 65


 3499      61636B5F 
 3499      7400
 3500              	.LASF200:
 3501 034b 50444461 		.ascii	"PDData\000"
 3501      746100
 3502              	.LASF76:
 3503 0352 70616E69 		.ascii	"panic_msg\000"
 3503      635F6D73 
 3503      6700
 3504              	.LASF60:
 3505 035c 725F6E65 		.ascii	"r_newer\000"
 3505      77657200 
 3506              	.LASF74:
 3507 0364 73797374 		.ascii	"system_debug_t\000"
 3507      656D5F64 
 3507      65627567 
 3507      5F7400
 3508              	.LASF232:
 3509 0373 53445F55 		.ascii	"SD_UNINIT\000"
 3509      4E494E49 
 3509      5400
 3510              	.LASF179:
 3511 037d 5F426F6F 		.ascii	"_Bool\000"
 3511      6C00
 3512              	.LASF103:
 3513 0383 43434D52 		.ascii	"CCMR1\000"
 3513      3100
 3514              	.LASF104:
 3515 0389 43434D52 		.ascii	"CCMR2\000"
 3515      3200
 3516              	.LASF108:
 3517 038f 43434D52 		.ascii	"CCMR3\000"
 3517      3300
 3518              	.LASF283:
 3519 0395 73745F6C 		.ascii	"st_lld_init\000"
 3519      6C645F69 
 3519      6E697400 
 3520              	.LASF127:
 3521 03a1 63686172 		.ascii	"char\000"
 3521      00
 3522              	.LASF190:
 3523 03a6 6D6F6465 		.ascii	"moder\000"
 3523      7200
 3524              	.LASF174:
 3525 03ac 69736869 		.ascii	"ishift\000"
 3525      667400
 3526              	.LASF34:
 3527 03b3 705F7072 		.ascii	"p_prio\000"
 3527      696F00
 3528              	.LASF254:
 3529 03ba 53504944 		.ascii	"SPIDriver\000"
 3529      72697665 
 3529      7200
 3530              	.LASF8:
 3531 03c4 5F5F7569 		.ascii	"__uint16_t\000"
 3531      6E743136 
 3531      5F7400
ARM GAS  /tmp/ccq9PJ8X.s 			page 66


 3532              	.LASF115:
 3533 03cf 77746F62 		.ascii	"wtobjp\000"
 3533      6A7000
 3534              	.LASF137:
 3535 03d6 63665F6F 		.ascii	"cf_off_newer\000"
 3535      66665F6E 
 3535      65776572 
 3535      00
 3536              	.LASF245:
 3537 03e3 67657474 		.ascii	"gett\000"
 3537      00
 3538              	.LASF98:
 3539 03e8 73746B61 		.ascii	"stkalign_t\000"
 3539      6C69676E 
 3539      5F7400
 3540              	.LASF96:
 3541 03f3 55534152 		.ascii	"USART_TypeDef\000"
 3541      545F5479 
 3541      70654465 
 3541      6600
 3542              	.LASF135:
 3543 0401 63665F6F 		.ascii	"cf_off_prio\000"
 3543      66665F70 
 3543      72696F00 
 3544              	.LASF172:
 3545 040d 73747265 		.ascii	"stream\000"
 3545      616D00
 3546              	.LASF149:
 3547 0414 6576656E 		.ascii	"event_listener_t\000"
 3547      745F6C69 
 3547      7374656E 
 3547      65725F74 
 3547      00
 3548              	.LASF109:
 3549 0425 43435852 		.ascii	"CCXR\000"
 3549      00
 3550              	.LASF221:
 3551 042a 70776D6D 		.ascii	"pwmmode_t\000"
 3551      6F64655F 
 3551      7400
 3552              	.LASF29:
 3553 0434 636E745F 		.ascii	"cnt_t\000"
 3553      7400
 3554              	.LASF267:
 3555 043a 53504944 		.ascii	"SPID2\000"
 3555      3200
 3556              	.LASF69:
 3557 0440 76745F66 		.ascii	"vt_func\000"
 3557      756E6300 
 3558              	.LASF45:
 3559 0448 705F6570 		.ascii	"p_epending\000"
 3559      656E6469 
 3559      6E6700
 3560              	.LASF118:
 3561 0453 77746D74 		.ascii	"wtmtxp\000"
 3561      787000
 3562              	.LASF56:
ARM GAS  /tmp/ccq9PJ8X.s 			page 67


 3563 045a 63685F72 		.ascii	"ch_ready_list\000"
 3563      65616479 
 3563      5F6C6973 
 3563      7400
 3564              	.LASF180:
 3565 0468 636C6561 		.ascii	"clear\000"
 3565      7200
 3566              	.LASF192:
 3567 046e 6F737065 		.ascii	"ospeedr\000"
 3567      65647200 
 3568              	.LASF282:
 3569 0476 73745F6C 		.ascii	"st_lld_stop_alarm\000"
 3569      6C645F73 
 3569      746F705F 
 3569      616C6172 
 3569      6D00
 3570              	.LASF199:
 3571 0488 50434461 		.ascii	"PCData\000"
 3571      746100
 3572              	.LASF157:
 3573 048f 65735F6E 		.ascii	"es_next\000"
 3573      65787400 
 3574              	.LASF162:
 3575 0497 715F636F 		.ascii	"q_counter\000"
 3575      756E7465 
 3575      7200
 3576              	.LASF217:
 3577 04a1 656E6162 		.ascii	"enabled\000"
 3577      6C656400 
 3578              	.LASF195:
 3579 04a9 61667268 		.ascii	"afrh\000"
 3579      00
 3580              	.LASF14:
 3581 04ae 5F5F7569 		.ascii	"__uint64_t\000"
 3581      6E743634 
 3581      5F7400
 3582              	.LASF13:
 3583 04b9 6C6F6E67 		.ascii	"long unsigned int\000"
 3583      20756E73 
 3583      69676E65 
 3583      6420696E 
 3583      7400
 3584              	.LASF129:
 3585 04cb 63685F7A 		.ascii	"ch_zero\000"
 3585      65726F00 
 3586              	.LASF102:
 3587 04d3 44494552 		.ascii	"DIER\000"
 3587      00
 3588              	.LASF191:
 3589 04d8 6F747970 		.ascii	"otyper\000"
 3589      657200
 3590              	.LASF84:
 3591 04df 53797374 		.ascii	"SystemCoreClock\000"
 3591      656D436F 
 3591      7265436C 
 3591      6F636B00 
 3592              	.LASF120:
ARM GAS  /tmp/ccq9PJ8X.s 			page 68


 3593 04ef 63685F73 		.ascii	"ch_semaphore\000"
 3593      656D6170 
 3593      686F7265 
 3593      00
 3594              	.LASF51:
 3595 04fc 63685F74 		.ascii	"ch_thread\000"
 3595      68726561 
 3595      6400
 3596              	.LASF71:
 3597 0506 76697274 		.ascii	"virtual_timers_list_t\000"
 3597      75616C5F 
 3597      74696D65 
 3597      72735F6C 
 3597      6973745F 
 3598              	.LASF178:
 3599 051c 5F73746D 		.ascii	"_stm32_dma_streams\000"
 3599      33325F64 
 3599      6D615F73 
 3599      74726561 
 3599      6D7300
 3600              	.LASF151:
 3601 052f 656C5F6E 		.ascii	"el_next\000"
 3601      65787400 
 3602              	.LASF64:
 3603 0537 76697274 		.ascii	"virtual_timer_t\000"
 3603      75616C5F 
 3603      74696D65 
 3603      725F7400 
 3604              	.LASF55:
 3605 0547 72656164 		.ascii	"ready_list_t\000"
 3605      795F6C69 
 3605      73745F74 
 3605      00
 3606              	.LASF165:
 3607 0554 715F7772 		.ascii	"q_wrptr\000"
 3607      70747200 
 3608              	.LASF186:
 3609 055c 4C434B52 		.ascii	"LCKR\000"
 3609      00
 3610              	.LASF110:
 3611 0561 73746D33 		.ascii	"stm32_tim_t\000"
 3611      325F7469 
 3611      6D5F7400 
 3612              	.LASF205:
 3613 056d 50494461 		.ascii	"PIData\000"
 3613      746100
 3614              	.LASF219:
 3615 0574 636C6F63 		.ascii	"clock\000"
 3615      6B00
 3616              	.LASF52:
 3617 057a 63685F74 		.ascii	"ch_threads_list\000"
 3617      68726561 
 3617      64735F6C 
 3617      69737400 
 3618              	.LASF193:
 3619 058a 70757064 		.ascii	"pupdr\000"
 3619      7200
ARM GAS  /tmp/ccq9PJ8X.s 			page 69


 3620              	.LASF183:
 3621 0590 4F535045 		.ascii	"OSPEEDR\000"
 3621      45445200 
 3622              	.LASF277:
 3623 0598 474E5520 		.ascii	"GNU C11 7.2.1 20170904 (release) [ARM/embedded-7-br"
 3623      43313120 
 3623      372E322E 
 3623      31203230 
 3623      31373039 
 3624 05cb 616E6368 		.ascii	"anch revision 255204] -mcpu=cortex-m4 -mno-thumb-in"
 3624      20726576 
 3624      6973696F 
 3624      6E203235 
 3624      35323034 
 3625 05fe 74657277 		.ascii	"terwork -mthumb -ggdb -O2 -fomit-frame-pointer -fal"
 3625      6F726B20 
 3625      2D6D7468 
 3625      756D6220 
 3625      2D676764 
 3626 0631 69676E2D 		.ascii	"ign-functions=16 -ffunction-sections -fdata-section"
 3626      66756E63 
 3626      74696F6E 
 3626      733D3136 
 3626      202D6666 
 3627 0664 73202D66 		.ascii	"s -fno-common\000"
 3627      6E6F2D63 
 3627      6F6D6D6F 
 3627      6E00
 3628              	.LASF272:
 3629 0672 61627374 		.ascii	"abstime\000"
 3629      696D6500 
 3630              	.LASF144:
 3631 067a 63665F6F 		.ascii	"cf_off_preempt\000"
 3631      66665F70 
 3631      7265656D 
 3631      707400
 3632              	.LASF257:
 3633 0689 646D6172 		.ascii	"dmarx\000"
 3633      7800
 3634              	.LASF12:
 3635 068f 5F5F7569 		.ascii	"__uint32_t\000"
 3635      6E743332 
 3635      5F7400
 3636              	.LASF250:
 3637 069a 5350495F 		.ascii	"SPI_READY\000"
 3637      52454144 
 3637      5900
 3638              	.LASF1:
 3639 06a4 6C6F6E67 		.ascii	"long long int\000"
 3639      206C6F6E 
 3639      6720696E 
 3639      7400
 3640              	.LASF131:
 3641 06b2 63685F76 		.ascii	"ch_version\000"
 3641      65727369 
 3641      6F6E00
 3642              	.LASF124:
ARM GAS  /tmp/ccq9PJ8X.s 			page 70


 3643 06bd 6D5F7175 		.ascii	"m_queue\000"
 3643      65756500 
 3644              	.LASF66:
 3645 06c5 76745F6E 		.ascii	"vt_next\000"
 3645      65787400 
 3646              	.LASF67:
 3647 06cd 76745F70 		.ascii	"vt_prev\000"
 3647      72657600 
 3648              	.LASF95:
 3649 06d5 47545052 		.ascii	"GTPR\000"
 3649      00
 3650              	.LASF158:
 3651 06da 6576656E 		.ascii	"event_source_t\000"
 3651      745F736F 
 3651      75726365 
 3651      5F7400
 3652              	.LASF241:
 3653 06e9 53657269 		.ascii	"SerialDriverVMT\000"
 3653      616C4472 
 3653      69766572 
 3653      564D5400 
 3654              	.LASF256:
 3655 06f9 6D757465 		.ascii	"mutex\000"
 3655      7800
 3656              	.LASF83:
 3657 06ff 49544D5F 		.ascii	"ITM_RxBuffer\000"
 3657      52784275 
 3657      66666572 
 3657      00
 3658              	.LASF90:
 3659 070c 52584352 		.ascii	"RXCRCR\000"
 3659      435200
 3660              	.LASF228:
 3661 0713 66726571 		.ascii	"frequency\000"
 3661      75656E63 
 3661      7900
 3662              	.LASF198:
 3663 071d 50424461 		.ascii	"PBData\000"
 3663      746100
 3664              	.LASF259:
 3665 0724 7278646D 		.ascii	"rxdmamode\000"
 3665      616D6F64 
 3665      6500
 3666              	.LASF169:
 3667 072e 716E6F74 		.ascii	"qnotify_t\000"
 3667      6966795F 
 3667      7400
 3668              	.LASF42:
 3669 0738 705F7761 		.ascii	"p_waiting\000"
 3669      6974696E 
 3669      6700
 3670              	.LASF237:
 3671 0742 6576656E 		.ascii	"event\000"
 3671      7400
 3672              	.LASF258:
 3673 0748 646D6174 		.ascii	"dmatx\000"
 3673      7800
ARM GAS  /tmp/ccq9PJ8X.s 			page 71


 3674              	.LASF181:
 3675 074e 4D4F4445 		.ascii	"MODER\000"
 3675      5200
 3676              	.LASF40:
 3677 0754 705F666C 		.ascii	"p_flags\000"
 3677      61677300 
 3678              	.LASF243:
 3679 075c 72656164 		.ascii	"read\000"
 3679      00
 3680              	.LASF82:
 3681 0761 69646C65 		.ascii	"idle_thread_wa\000"
 3681      5F746872 
 3681      6561645F 
 3681      776100
 3682              	.LASF0:
 3683 0770 756E7369 		.ascii	"unsigned int\000"
 3683      676E6564 
 3683      20696E74 
 3683      00
 3684              	.LASF265:
 3685 077d 53504943 		.ascii	"SPIConfig\000"
 3685      6F6E6669 
 3685      6700
 3686              	.LASF251:
 3687 0787 5350495F 		.ascii	"SPI_ACTIVE\000"
 3687      41435449 
 3687      564500
 3688              	.LASF21:
 3689 0792 7274636E 		.ascii	"rtcnt_t\000"
 3689      745F7400 
 3690              	.LASF48:
 3691 079a 705F6D70 		.ascii	"p_mpool\000"
 3691      6F6F6C00 
 3692              	.LASF218:
 3693 07a2 6368616E 		.ascii	"channels\000"
 3693      6E656C73 
 3693      00
 3694              	.LASF41:
 3695 07ab 705F7265 		.ascii	"p_refs\000"
 3695      667300
 3696              	.LASF133:
 3697 07b2 63685F74 		.ascii	"ch_timesize\000"
 3697      696D6573 
 3697      697A6500 
 3698              	.LASF155:
 3699 07be 656C5F77 		.ascii	"el_wflags\000"
 3699      666C6167 
 3699      7300
 3700              	.LASF220:
 3701 07c8 70776D63 		.ascii	"pwmcallback_t\000"
 3701      616C6C62 
 3701      61636B5F 
 3701      7400
 3702              	.LASF153:
 3703 07d6 656C5F65 		.ascii	"el_events\000"
 3703      76656E74 
 3703      7300
ARM GAS  /tmp/ccq9PJ8X.s 			page 72


 3704              	.LASF213:
 3705 07e0 50574D44 		.ascii	"PWMDriver\000"
 3705      72697665 
 3705      7200
 3706              	.LASF111:
 3707 07ea 6F666673 		.ascii	"offset\000"
 3707      657400
 3708              	.LASF280:
 3709 07f1 73744765 		.ascii	"stGetAlarm\000"
 3709      74416C61 
 3709      726D00
 3710              	.LASF204:
 3711 07fc 50484461 		.ascii	"PHData\000"
 3711      746100
 3712              	.LASF88:
 3713 0803 444D415F 		.ascii	"DMA_Stream_TypeDef\000"
 3713      53747265 
 3713      616D5F54 
 3713      79706544 
 3713      656600
 3714              	.LASF143:
 3715 0816 63665F6F 		.ascii	"cf_off_refs\000"
 3715      66665F72 
 3715      65667300 
 3716              	.LASF275:
 3717 0822 73745F6C 		.ascii	"st_lld_start_alarm\000"
 3717      6C645F73 
 3717      74617274 
 3717      5F616C61 
 3717      726D00
 3718              	.LASF194:
 3719 0835 6166726C 		.ascii	"afrl\000"
 3719      00
 3720              	.LASF271:
 3721 083a 73745374 		.ascii	"stStartAlarm\000"
 3721      61727441 
 3721      6C61726D 
 3721      00
 3722              	.LASF31:
 3723 0847 74687265 		.ascii	"thread_t\000"
 3723      61645F74 
 3723      00
 3724              	.LASF2:
 3725 0850 6C6F6E67 		.ascii	"long double\000"
 3725      20646F75 
 3725      626C6500 
 3726              	.LASF49:
 3727 085c 74687265 		.ascii	"thread_reference_t\000"
 3727      61645F72 
 3727      65666572 
 3727      656E6365 
 3727      5F7400
 3728              	.LASF47:
 3729 086f 705F7265 		.ascii	"p_realprio\000"
 3729      616C7072 
 3729      696F00
 3730              	.LASF100:
ARM GAS  /tmp/ccq9PJ8X.s 			page 73


 3731 087a 706F7274 		.ascii	"port_intctx\000"
 3731      5F696E74 
 3731      63747800 
 3732              	.LASF145:
 3733 0886 63665F6F 		.ascii	"cf_off_time\000"
 3733      66665F74 
 3733      696D6500 
 3734              	.LASF68:
 3735 0892 76745F64 		.ascii	"vt_delta\000"
 3735      656C7461 
 3735      00
 3736              	.LASF65:
 3737 089b 63685F76 		.ascii	"ch_virtual_timer\000"
 3737      69727475 
 3737      616C5F74 
 3737      696D6572 
 3737      00
 3738              	.LASF122:
 3739 08ac 735F636E 		.ascii	"s_cnt\000"
 3739      7400
 3740              	.LASF175:
 3741 08b2 73656C66 		.ascii	"selfindex\000"
 3741      696E6465 
 3741      7800
 3742              	.LASF15:
 3743 08bc 6C6F6E67 		.ascii	"long long unsigned int\000"
 3743      206C6F6E 
 3743      6720756E 
 3743      7369676E 
 3743      65642069 
 3744              	.LASF210:
 3745 08d3 50574D5F 		.ascii	"PWM_STOP\000"
 3745      53544F50 
 3745      00
 3746              	.LASF197:
 3747 08dc 50414461 		.ascii	"PAData\000"
 3747      746100
 3748              	.LASF37:
 3749 08e3 705F6F6C 		.ascii	"p_older\000"
 3749      64657200 
 3750              	.LASF17:
 3751 08eb 75696E74 		.ascii	"uint16_t\000"
 3751      31365F74 
 3751      00
 3752              	.LASF26:
 3753 08f4 6D73675F 		.ascii	"msg_t\000"
 3753      7400
 3754              	.LASF54:
 3755 08fa 63685F74 		.ascii	"ch_threads_queue\000"
 3755      68726561 
 3755      64735F71 
 3755      75657565 
 3755      00
 3756              	.LASF28:
 3757 090b 6576656E 		.ascii	"eventflags_t\000"
 3757      74666C61 
 3757      67735F74 
ARM GAS  /tmp/ccq9PJ8X.s 			page 74


 3757      00
 3758              	.LASF278:
 3759 0918 2E2E2F2E 		.ascii	"../../../os/hal/src/st.c\000"
 3759      2E2F2E2E 
 3759      2F6F732F 
 3759      68616C2F 
 3759      7372632F 
 3760              	.LASF142:
 3761 0931 63665F6F 		.ascii	"cf_off_flags\000"
 3761      66665F66 
 3761      6C616773 
 3761      00
 3762              	.LASF105:
 3763 093e 43434552 		.ascii	"CCER\000"
 3763      00
 3764              	.LASF62:
 3765 0943 725F6375 		.ascii	"r_current\000"
 3765      7272656E 
 3765      7400
 3766              	.LASF188:
 3767 094d 41465248 		.ascii	"AFRH\000"
 3767      00
 3768              	.LASF187:
 3769 0952 4146524C 		.ascii	"AFRL\000"
 3769      00
 3770              	.LASF176:
 3771 0957 76656374 		.ascii	"vector\000"
 3771      6F7200
 3772              	.LASF81:
 3773 095e 6D61696E 		.ascii	"mainthread\000"
 3773      74687265 
 3773      616400
 3774              	.LASF101:
 3775 0969 534D4352 		.ascii	"SMCR\000"
 3775      00
 3776              	.LASF216:
 3777 096e 70657269 		.ascii	"period\000"
 3777      6F6400
 3778              	.LASF57:
 3779 0975 725F7175 		.ascii	"r_queue\000"
 3779      65756500 
 3780              	.LASF236:
 3781 097d 53657269 		.ascii	"SerialDriver\000"
 3781      616C4472 
 3781      69766572 
 3781      00
 3782              	.LASF182:
 3783 098a 4F545950 		.ascii	"OTYPER\000"
 3783      455200
 3784              	.LASF203:
 3785 0991 50474461 		.ascii	"PGData\000"
 3785      746100
 3786              	.LASF161:
 3787 0998 715F7761 		.ascii	"q_waiting\000"
 3787      6974696E 
 3787      6700
 3788              	.LASF91:
ARM GAS  /tmp/ccq9PJ8X.s 			page 75


 3789 09a2 54584352 		.ascii	"TXCRCR\000"
 3789      435200
 3790              	.LASF94:
 3791 09a9 5350495F 		.ascii	"SPI_TypeDef\000"
 3791      54797065 
 3791      44656600 
 3792              	.LASF79:
 3793 09b5 726C6973 		.ascii	"rlist\000"
 3793      7400
 3794              	.LASF22:
 3795 09bb 746D6F64 		.ascii	"tmode_t\000"
 3795      655F7400 
 3796              	.LASF89:
 3797 09c3 43524350 		.ascii	"CRCPR\000"
 3797      5200
 3798              	.LASF235:
 3799 09c9 73647374 		.ascii	"sdstate_t\000"
 3799      6174655F 
 3799      7400
 3800              	.LASF270:
 3801 09d3 73745374 		.ascii	"stStopAlarm\000"
 3801      6F70416C 
 3801      61726D00 
 3802              	.LASF234:
 3803 09df 53445F52 		.ascii	"SD_READY\000"
 3803      45414459 
 3803      00
 3804              	.LASF274:
 3805 09e8 73745F6C 		.ascii	"st_lld_set_alarm\000"
 3805      6C645F73 
 3805      65745F61 
 3805      6C61726D 
 3805      00
 3806              	.LASF61:
 3807 09f9 725F6F6C 		.ascii	"r_older\000"
 3807      64657200 
 3808              	.LASF112:
 3809 0a01 746D5F63 		.ascii	"tm_calibration_t\000"
 3809      616C6962 
 3809      72617469 
 3809      6F6E5F74 
 3809      00
 3810              	.LASF255:
 3811 0a12 74687265 		.ascii	"thread\000"
 3811      616400
 3812              	.LASF86:
 3813 0a19 4D304152 		.ascii	"M0AR\000"
 3813      00
 3814              	.LASF121:
 3815 0a1e 735F7175 		.ascii	"s_queue\000"
 3815      65756500 
 3816              	.LASF211:
 3817 0a26 50574D5F 		.ascii	"PWM_READY\000"
 3817      52454144 
 3817      5900
 3818              	.LASF7:
 3819 0a30 73686F72 		.ascii	"short int\000"
ARM GAS  /tmp/ccq9PJ8X.s 			page 76


 3819      7420696E 
 3819      7400
 3820              	.LASF156:
 3821 0a3a 6576656E 		.ascii	"event_source\000"
 3821      745F736F 
 3821      75726365 
 3821      00
 3822              	.LASF20:
 3823 0a47 75696E74 		.ascii	"uint64_t\000"
 3823      36345F74 
 3823      00
 3824              	.LASF225:
 3825 0a50 6D6F6465 		.ascii	"mode\000"
 3825      00
 3826              	.LASF123:
 3827 0a55 63685F6D 		.ascii	"ch_mutex\000"
 3827      75746578 
 3827      00
 3828              	.LASF238:
 3829 0a5e 69717565 		.ascii	"iqueue\000"
 3829      756500
 3830              	.LASF58:
 3831 0a65 725F7072 		.ascii	"r_prio\000"
 3831      696F00
 3832              	.LASF75:
 3833 0a6c 63685F73 		.ascii	"ch_system_debug\000"
 3833      79737465 
 3833      6D5F6465 
 3833      62756700 
 3834              	.LASF138:
 3835 0a7c 63665F6F 		.ascii	"cf_off_older\000"
 3835      66665F6F 
 3835      6C646572 
 3835      00
 3836              	.LASF159:
 3837 0a89 696F5F71 		.ascii	"io_queue_t\000"
 3837      75657565 
 3837      5F7400
 3838              	.LASF185:
 3839 0a94 42535252 		.ascii	"BSRR\000"
 3839      00
 3840              	.LASF206:
 3841 0a99 50414C43 		.ascii	"PALConfig\000"
 3841      6F6E6669 
 3841      6700
 3842              	.LASF80:
 3843 0aa3 76746C69 		.ascii	"vtlist\000"
 3843      737400
 3844              	.LASF230:
 3845 0aaa 50574D43 		.ascii	"PWMConfig\000"
 3845      6F6E6669 
 3845      6700
 3846              	.LASF148:
 3847 0ab4 6D757465 		.ascii	"mutex_t\000"
 3847      785F7400 
 3848              	.LASF24:
 3849 0abc 74726566 		.ascii	"trefs_t\000"
ARM GAS  /tmp/ccq9PJ8X.s 			page 77


 3849      735F7400 
 3850              	.LASF140:
 3851 0ac4 63665F6F 		.ascii	"cf_off_stklimit\000"
 3851      66665F73 
 3851      746B6C69 
 3851      6D697400 
 3852              	.LASF50:
 3853 0ad4 74687265 		.ascii	"threads_list_t\000"
 3853      6164735F 
 3853      6C697374 
 3853      5F7400
 3854              	.LASF231:
 3855 0ae3 50574D44 		.ascii	"PWMD4\000"
 3855      3400
 3856              	.LASF78:
 3857 0ae9 63685F73 		.ascii	"ch_system\000"
 3857      79737465 
 3857      6D00
 3858              	.LASF212:
 3859 0af3 70776D73 		.ascii	"pwmstate_t\000"
 3859      74617465 
 3859      5F7400
 3860              	.LASF106:
 3861 0afe 42445452 		.ascii	"BDTR\000"
 3861      00
 3862              	.LASF19:
 3863 0b03 75696E74 		.ascii	"uint32_t\000"
 3863      33325F74 
 3863      00
 3864              	.LASF93:
 3865 0b0c 49325350 		.ascii	"I2SPR\000"
 3865      5200
 3866              	.LASF170:
 3867 0b12 696E7075 		.ascii	"input_queue_t\000"
 3867      745F7175 
 3867      6575655F 
 3867      7400
 3868              	.LASF252:
 3869 0b20 5350495F 		.ascii	"SPI_COMPLETE\000"
 3869      434F4D50 
 3869      4C455445 
 3869      00
 3870              	.LASF202:
 3871 0b2d 50464461 		.ascii	"PFData\000"
 3871      746100
 3872              	.LASF150:
 3873 0b34 6576656E 		.ascii	"event_listener\000"
 3873      745F6C69 
 3873      7374656E 
 3873      657200
 3874              	.LASF113:
 3875 0b43 7264796D 		.ascii	"rdymsg\000"
 3875      736700
 3876              	.LASF73:
 3877 0b4a 76745F6C 		.ascii	"vt_lasttime\000"
 3877      61737474 
 3877      696D6500 
ARM GAS  /tmp/ccq9PJ8X.s 			page 78


 3878              	.LASF9:
 3879 0b56 73686F72 		.ascii	"short unsigned int\000"
 3879      7420756E 
 3879      7369676E 
 3879      65642069 
 3879      6E7400
 3880              	.LASF77:
 3881 0b69 63685F73 		.ascii	"ch_system_t\000"
 3881      79737465 
 3881      6D5F7400 
 3882              	.LASF146:
 3883 0b75 63686465 		.ascii	"chdebug_t\000"
 3883      6275675F 
 3883      7400
 3884              	.LASF253:
 3885 0b7f 73706973 		.ascii	"spistate_t\000"
 3885      74617465 
 3885      5F7400
 3886              	.LASF130:
 3887 0b8a 63685F73 		.ascii	"ch_size\000"
 3887      697A6500 
 3888              	.LASF171:
 3889 0b92 6F757470 		.ascii	"output_queue_t\000"
 3889      75745F71 
 3889      75657565 
 3889      5F7400
 3890              	.LASF276:
 3891 0ba1 74696D65 		.ascii	"time\000"
 3891      00
 3892              	.LASF273:
 3893 0ba6 7374496E 		.ascii	"stInit\000"
 3893      697400
 3894              	.LASF10:
 3895 0bad 5F5F696E 		.ascii	"__int32_t\000"
 3895      7433325F 
 3895      7400
 3896              	.LASF233:
 3897 0bb7 53445F53 		.ascii	"SD_STOP\000"
 3897      544F5000 
 3898              	.LASF85:
 3899 0bbf 4E445452 		.ascii	"NDTR\000"
 3899      00
 3900              	.LASF173:
 3901 0bc4 69666372 		.ascii	"ifcr\000"
 3901      00
 3902              	.LASF264:
 3903 0bc9 73737061 		.ascii	"sspad\000"
 3903      6400
 3904              	.LASF38:
 3905 0bcf 705F6E61 		.ascii	"p_name\000"
 3905      6D6500
 3906              	.LASF126:
 3907 0bd6 6D5F6E65 		.ascii	"m_next\000"
 3907      787400
 3908              	.LASF260:
 3909 0bdd 7478646D 		.ascii	"txdmamode\000"
 3909      616D6F64 
ARM GAS  /tmp/ccq9PJ8X.s 			page 79


 3909      6500
 3910              	.LASF44:
 3911 0be7 705F6D73 		.ascii	"p_msg\000"
 3911      6700
 3912              	.LASF152:
 3913 0bed 656C5F6C 		.ascii	"el_listener\000"
 3913      69737465 
 3913      6E657200 
 3914              	.LASF39:
 3915 0bf9 705F7374 		.ascii	"p_state\000"
 3915      61746500 
 3916              		.ident	"GCC: (GNU Tools for Arm Embedded Processors 7-2017-q4-major) 7.2.1 20170904 (release) [ARM
ARM GAS  /tmp/ccq9PJ8X.s 			page 80


DEFINED SYMBOLS
                            *ABS*:0000000000000000 st.c
     /tmp/ccq9PJ8X.s:16     .text.stInit:0000000000000000 $t
     /tmp/ccq9PJ8X.s:24     .text.stInit:0000000000000000 stInit
     /tmp/ccq9PJ8X.s:39     .text.stStartAlarm:0000000000000000 $t
     /tmp/ccq9PJ8X.s:47     .text.stStartAlarm:0000000000000000 stStartAlarm
     /tmp/ccq9PJ8X.s:80     .text.stStopAlarm:0000000000000000 $t
     /tmp/ccq9PJ8X.s:88     .text.stStopAlarm:0000000000000000 stStopAlarm
     /tmp/ccq9PJ8X.s:109    .text.stSetAlarm:0000000000000000 $t
     /tmp/ccq9PJ8X.s:117    .text.stSetAlarm:0000000000000000 stSetAlarm
     /tmp/ccq9PJ8X.s:140    .text.stGetAlarm:0000000000000000 $t
     /tmp/ccq9PJ8X.s:148    .text.stGetAlarm:0000000000000000 stGetAlarm

UNDEFINED SYMBOLS
st_lld_init
